In archive libcpuLib.a:

cpuLib.cpp.o:     file format elf64-x86-64


Disassembly of section .group:

0000000000000000 <.group>:
   0:	01 00                	add    %eax,(%rax)
   2:	00 00                	add    %al,(%rax)
   4:	27                   	(bad)  
   5:	00 00                	add    %al,(%rax)
   7:	00 28                	add    %ch,(%rax)
   9:	00 00                	add    %al,(%rax)
   b:	00 29                	add    %ch,(%rcx)
   d:	00 00                	add    %al,(%rax)
	...

Disassembly of section .group:

0000000000000000 <.group>:
   0:	01 00                	add    %eax,(%rax)
   2:	00 00                	add    %al,(%rax)
   4:	2a 00                	sub    (%rax),%al
   6:	00 00                	add    %al,(%rax)
   8:	2b 00                	sub    (%rax),%eax
	...

Disassembly of section .group:

0000000000000000 <.group>:
   0:	01 00                	add    %eax,(%rax)
   2:	00 00                	add    %al,(%rax)
   4:	2c 00                	sub    $0x0,%al
	...

Disassembly of section .group:

0000000000000000 <_ZNSt13random_deviceC5Ev>:
   0:	01 00                	add    %eax,(%rax)
   2:	00 00                	add    %al,(%rax)
   4:	2d 00 00 00 2e       	sub    $0x2e000000,%eax
   9:	00 00                	add    %al,(%rax)
   b:	00 2f                	add    %ch,(%rdi)
   d:	00 00                	add    %al,(%rax)
	...

Disassembly of section .group:

0000000000000000 <_ZNSt13random_deviceD5Ev>:
   0:	01 00                	add    %eax,(%rax)
   2:	00 00                	add    %al,(%rax)
   4:	30 00                	xor    %al,(%rax)
   6:	00 00                	add    %al,(%rax)
   8:	31 00                	xor    %eax,(%rax)
   a:	00 00                	add    %al,(%rax)
   c:	32 00                	xor    (%rax),%al
	...

Disassembly of section .group:

0000000000000000 <.group>:
   0:	01 00                	add    %eax,(%rax)
   2:	00 00                	add    %al,(%rax)
   4:	33 00                	xor    (%rax),%eax
   6:	00 00                	add    %al,(%rax)
   8:	34 00                	xor    $0x0,%al
	...

Disassembly of section .group:

0000000000000000 <.group>:
   0:	01 00                	add    %eax,(%rax)
   2:	00 00                	add    %al,(%rax)
   4:	35 00 00 00 36       	xor    $0x36000000,%eax
   9:	00 00                	add    %al,(%rax)
	...

Disassembly of section .group:

0000000000000000 <.group>:
   0:	01 00                	add    %eax,(%rax)
   2:	00 00                	add    %al,(%rax)
   4:	37                   	(bad)  
   5:	00 00                	add    %al,(%rax)
	...

Disassembly of section .group:

0000000000000000 <.group>:
   0:	01 00                	add    %eax,(%rax)
   2:	00 00                	add    %al,(%rax)
   4:	38 00                	cmp    %al,(%rax)
	...

Disassembly of section .group:

0000000000000000 <.group>:
   0:	01 00                	add    %eax,(%rax)
   2:	00 00                	add    %al,(%rax)
   4:	39 00                	cmp    %eax,(%rax)
	...

Disassembly of section .group:

0000000000000000 <.group>:
   0:	01 00                	add    %eax,(%rax)
   2:	00 00                	add    %al,(%rax)
   4:	3a 00                	cmp    (%rax),%al
   6:	00 00                	add    %al,(%rax)
   8:	3b 00                	cmp    (%rax),%eax
	...

Disassembly of section .group:

0000000000000000 <.group>:
   0:	01 00                	add    %eax,(%rax)
   2:	00 00                	add    %al,(%rax)
   4:	3c 00                	cmp    $0x0,%al
   6:	00 00                	add    %al,(%rax)
   8:	3d                   	.byte 0x3d
   9:	00 00                	add    %al,(%rax)
	...

Disassembly of section .group:

0000000000000000 <.group>:
   0:	01 00                	add    %eax,(%rax)
   2:	00 00                	add    %al,(%rax)
   4:	3e 00 00             	add    %al,%ds:(%rax)
   7:	00 3f                	add    %bh,(%rdi)
   9:	00 00                	add    %al,(%rax)
	...

Disassembly of section .group:

0000000000000000 <.group>:
   0:	01 00                	add    %eax,(%rax)
   2:	00 00                	add    %al,(%rax)
   4:	40 00 00             	add    %al,(%rax)
	...

Disassembly of section .group:

0000000000000000 <.group>:
   0:	01 00                	add    %eax,(%rax)
   2:	00 00                	add    %al,(%rax)
   4:	42 00 00             	rex.X add %al,(%rax)
	...

Disassembly of section .group:

0000000000000000 <.group>:
   0:	01 00                	add    %eax,(%rax)
   2:	00 00                	add    %al,(%rax)
   4:	43 00 00             	rex.XB add %al,(%r8)
	...

Disassembly of section .group:

0000000000000000 <.group>:
   0:	01 00                	add    %eax,(%rax)
   2:	00 00                	add    %al,(%rax)
   4:	44 00 00             	add    %r8b,(%rax)
   7:	00 45 00             	add    %al,0x0(%rbp)
	...

Disassembly of section .group:

0000000000000000 <.group>:
   0:	01 00                	add    %eax,(%rax)
   2:	00 00                	add    %al,(%rax)
   4:	46 00 00             	rex.RX add %r8b,(%rax)
	...

Disassembly of section .group:

0000000000000000 <_ZNSt25uniform_real_distributionIfEC5Eff>:
   0:	01 00                	add    %eax,(%rax)
   2:	00 00                	add    %al,(%rax)
   4:	47 00 00             	rex.RXB add %r8b,(%r8)
   7:	00 48 00             	add    %cl,0x0(%rax)
	...

Disassembly of section .group:

0000000000000000 <.group>:
   0:	01 00                	add    %eax,(%rax)
   2:	00 00                	add    %al,(%rax)
   4:	49 00 00             	rex.WB add %al,(%r8)
   7:	00 4a 00             	add    %cl,0x0(%rdx)
	...

Disassembly of section .group:

0000000000000000 <.group>:
   0:	01 00                	add    %eax,(%rax)
   2:	00 00                	add    %al,(%rax)
   4:	4b 00 00             	rex.WXB add %al,(%r8)
   7:	00 4c 00 00          	add    %cl,0x0(%rax,%rax,1)
	...

Disassembly of section .group:

0000000000000000 <.group>:
   0:	01 00                	add    %eax,(%rax)
   2:	00 00                	add    %al,(%rax)
   4:	4d 00 00             	rex.WRB add %r8b,(%r8)
	...

Disassembly of section .group:

0000000000000000 <_ZNSt25uniform_real_distributionIfE10param_typeC5Eff>:
   0:	01 00                	add    %eax,(%rax)
   2:	00 00                	add    %al,(%rax)
   4:	4e 00 00             	rex.WRX add %r8b,(%rax)
	...

Disassembly of section .group:

0000000000000000 <.group>:
   0:	01 00                	add    %eax,(%rax)
   2:	00 00                	add    %al,(%rax)
   4:	4f 00 00             	rex.WRXB add %r8b,(%r8)
   7:	00 50 00             	add    %dl,0x0(%rax)
	...

Disassembly of section .group:

0000000000000000 <.group>:
   0:	01 00                	add    %eax,(%rax)
   2:	00 00                	add    %al,(%rax)
   4:	51                   	push   %rcx
   5:	00 00                	add    %al,(%rax)
   7:	00 52 00             	add    %dl,0x0(%rdx)
	...

Disassembly of section .group:

0000000000000000 <_ZNSt8__detail8_AdaptorISt13random_devicefEC5ERS1_>:
   0:	01 00                	add    %eax,(%rax)
   2:	00 00                	add    %al,(%rax)
   4:	53                   	push   %rbx
   5:	00 00                	add    %al,(%rax)
	...

Disassembly of section .group:

0000000000000000 <.group>:
   0:	01 00                	add    %eax,(%rax)
   2:	00 00                	add    %al,(%rax)
   4:	54                   	push   %rsp
   5:	00 00                	add    %al,(%rax)
   7:	00 55 00             	add    %dl,0x0(%rbp)
	...

Disassembly of section .group:

0000000000000000 <.group>:
   0:	01 00                	add    %eax,(%rax)
   2:	00 00                	add    %al,(%rax)
   4:	56                   	push   %rsi
   5:	00 00                	add    %al,(%rax)
	...

Disassembly of section .group:

0000000000000000 <.group>:
   0:	01 00                	add    %eax,(%rax)
   2:	00 00                	add    %al,(%rax)
   4:	57                   	push   %rdi
   5:	00 00                	add    %al,(%rax)
	...

Disassembly of section .group:

0000000000000000 <_ZNSt6chrono8durationIdSt5ratioILl1ELl1EEEC5IdvEERKT_>:
   0:	01 00                	add    %eax,(%rax)
   2:	00 00                	add    %al,(%rax)
   4:	58                   	pop    %rax
   5:	00 00                	add    %al,(%rax)
	...

Disassembly of section .group:

0000000000000000 <.group>:
   0:	01 00                	add    %eax,(%rax)
   2:	00 00                	add    %al,(%rax)
   4:	59                   	pop    %rcx
   5:	00 00                	add    %al,(%rax)
   7:	00 5a 00             	add    %bl,0x0(%rdx)
	...

Disassembly of section .group:

0000000000000000 <.group>:
   0:	01 00                	add    %eax,(%rax)
   2:	00 00                	add    %al,(%rax)
   4:	5b                   	pop    %rbx
   5:	00 00                	add    %al,(%rax)
	...

Disassembly of section .group:

0000000000000000 <.group>:
   0:	01 00                	add    %eax,(%rax)
   2:	00 00                	add    %al,(%rax)
   4:	5c                   	pop    %rsp
   5:	00 00                	add    %al,(%rax)
	...

Disassembly of section .text:

0000000000000000 <_Z8dbprintfPKcz>:
   0:	55                   	push   %rbp
   1:	48 89 e5             	mov    %rsp,%rbp
   4:	48 81 ec e0 00 00 00 	sub    $0xe0,%rsp
   b:	48 89 bd 28 ff ff ff 	mov    %rdi,-0xd8(%rbp)
  12:	48 89 b5 58 ff ff ff 	mov    %rsi,-0xa8(%rbp)
  19:	48 89 95 60 ff ff ff 	mov    %rdx,-0xa0(%rbp)
  20:	48 89 8d 68 ff ff ff 	mov    %rcx,-0x98(%rbp)
  27:	4c 89 85 70 ff ff ff 	mov    %r8,-0x90(%rbp)
  2e:	4c 89 8d 78 ff ff ff 	mov    %r9,-0x88(%rbp)
  35:	84 c0                	test   %al,%al
  37:	74 20                	je     59 <_Z8dbprintfPKcz+0x59>
  39:	0f 29 45 80          	movaps %xmm0,-0x80(%rbp)
  3d:	0f 29 4d 90          	movaps %xmm1,-0x70(%rbp)
  41:	0f 29 55 a0          	movaps %xmm2,-0x60(%rbp)
  45:	0f 29 5d b0          	movaps %xmm3,-0x50(%rbp)
  49:	0f 29 65 c0          	movaps %xmm4,-0x40(%rbp)
  4d:	0f 29 6d d0          	movaps %xmm5,-0x30(%rbp)
  51:	0f 29 75 e0          	movaps %xmm6,-0x20(%rbp)
  55:	0f 29 7d f0          	movaps %xmm7,-0x10(%rbp)
  59:	c7 85 30 ff ff ff 08 	movl   $0x8,-0xd0(%rbp)
  60:	00 00 00 
  63:	c7 85 34 ff ff ff 30 	movl   $0x30,-0xcc(%rbp)
  6a:	00 00 00 
  6d:	48 8d 45 10          	lea    0x10(%rbp),%rax
  71:	48 89 85 38 ff ff ff 	mov    %rax,-0xc8(%rbp)
  78:	48 8d 85 50 ff ff ff 	lea    -0xb0(%rbp),%rax
  7f:	48 89 85 40 ff ff ff 	mov    %rax,-0xc0(%rbp)
  86:	48 8d 95 30 ff ff ff 	lea    -0xd0(%rbp),%rdx
  8d:	48 8b 85 28 ff ff ff 	mov    -0xd8(%rbp),%rax
  94:	48 89 d6             	mov    %rdx,%rsi
  97:	48 89 c7             	mov    %rax,%rdi
  9a:	e8 00 00 00 00       	callq  9f <_Z8dbprintfPKcz+0x9f>
  9f:	89 85 4c ff ff ff    	mov    %eax,-0xb4(%rbp)
  a5:	90                   	nop
  a6:	c9                   	leaveq 
  a7:	c3                   	retq   

00000000000000a8 <_Z10vectorInitPfi>:
  a8:	55                   	push   %rbp
  a9:	48 89 e5             	mov    %rsp,%rbp
  ac:	48 83 ec 20          	sub    $0x20,%rsp
  b0:	48 89 7d e8          	mov    %rdi,-0x18(%rbp)
  b4:	89 75 e4             	mov    %esi,-0x1c(%rbp)
  b7:	c7 45 fc 00 00 00 00 	movl   $0x0,-0x4(%rbp)
  be:	eb 48                	jmp    108 <_Z10vectorInitPfi+0x60>
  c0:	e8 00 00 00 00       	callq  c5 <_Z10vectorInitPfi+0x1d>
  c5:	48 63 d0             	movslq %eax,%rdx
  c8:	48 69 d2 1f 85 eb 51 	imul   $0x51eb851f,%rdx,%rdx
  cf:	48 c1 ea 20          	shr    $0x20,%rdx
  d3:	c1 fa 05             	sar    $0x5,%edx
  d6:	89 c1                	mov    %eax,%ecx
  d8:	c1 f9 1f             	sar    $0x1f,%ecx
  db:	29 ca                	sub    %ecx,%edx
  dd:	6b ca 64             	imul   $0x64,%edx,%ecx
  e0:	29 c8                	sub    %ecx,%eax
  e2:	89 c2                	mov    %eax,%edx
  e4:	8b 45 fc             	mov    -0x4(%rbp),%eax
  e7:	48 98                	cltq   
  e9:	48 8d 0c 85 00 00 00 	lea    0x0(,%rax,4),%rcx
  f0:	00 
  f1:	48 8b 45 e8          	mov    -0x18(%rbp),%rax
  f5:	48 01 c8             	add    %rcx,%rax
  f8:	66 0f ef c0          	pxor   %xmm0,%xmm0
  fc:	f3 0f 2a c2          	cvtsi2ss %edx,%xmm0
 100:	f3 0f 11 00          	movss  %xmm0,(%rax)
 104:	83 45 fc 01          	addl   $0x1,-0x4(%rbp)
 108:	8b 45 fc             	mov    -0x4(%rbp),%eax
 10b:	3b 45 e4             	cmp    -0x1c(%rbp),%eax
 10e:	7c b0                	jl     c0 <_Z10vectorInitPfi+0x18>
 110:	90                   	nop
 111:	90                   	nop
 112:	c9                   	leaveq 
 113:	c3                   	retq   

0000000000000114 <_Z12verifyVectorPfS_S_fi>:
 114:	55                   	push   %rbp
 115:	48 89 e5             	mov    %rsp,%rbp
 118:	48 83 ec 50          	sub    $0x50,%rsp
 11c:	48 89 7d c8          	mov    %rdi,-0x38(%rbp)
 120:	48 89 75 c0          	mov    %rsi,-0x40(%rbp)
 124:	48 89 55 b8          	mov    %rdx,-0x48(%rbp)
 128:	f3 0f 11 45 b4       	movss  %xmm0,-0x4c(%rbp)
 12d:	89 4d b0             	mov    %ecx,-0x50(%rbp)
 130:	c7 45 fc 00 00 00 00 	movl   $0x0,-0x4(%rbp)
 137:	c7 45 f8 00 00 00 00 	movl   $0x0,-0x8(%rbp)
 13e:	e9 a7 02 00 00       	jmpq   3ea <_Z12verifyVectorPfS_S_fi+0x2d6>
 143:	bf 04 00 00 00       	mov    $0x4,%edi
 148:	e8 00 00 00 00       	callq  14d <_Z12verifyVectorPfS_S_fi+0x39>
 14d:	48 89 45 f0          	mov    %rax,-0x10(%rbp)
 151:	bf 04 00 00 00       	mov    $0x4,%edi
 156:	e8 00 00 00 00       	callq  15b <_Z12verifyVectorPfS_S_fi+0x47>
 15b:	48 89 45 e8          	mov    %rax,-0x18(%rbp)
 15f:	bf 04 00 00 00       	mov    $0x4,%edi
 164:	e8 00 00 00 00       	callq  169 <_Z12verifyVectorPfS_S_fi+0x55>
 169:	48 89 45 e0          	mov    %rax,-0x20(%rbp)
 16d:	bf 04 00 00 00       	mov    $0x4,%edi
 172:	e8 00 00 00 00       	callq  177 <_Z12verifyVectorPfS_S_fi+0x63>
 177:	48 89 45 d8          	mov    %rax,-0x28(%rbp)
 17b:	bf 04 00 00 00       	mov    $0x4,%edi
 180:	e8 00 00 00 00       	callq  185 <_Z12verifyVectorPfS_S_fi+0x71>
 185:	48 89 45 d0          	mov    %rax,-0x30(%rbp)
 189:	48 8b 45 f0          	mov    -0x10(%rbp),%rax
 18d:	f3 0f 10 45 b4       	movss  -0x4c(%rbp),%xmm0
 192:	f3 0f 11 00          	movss  %xmm0,(%rax)
 196:	8b 45 f8             	mov    -0x8(%rbp),%eax
 199:	48 98                	cltq   
 19b:	48 8d 14 85 00 00 00 	lea    0x0(,%rax,4),%rdx
 1a2:	00 
 1a3:	48 8b 45 c8          	mov    -0x38(%rbp),%rax
 1a7:	48 01 d0             	add    %rdx,%rax
 1aa:	f3 0f 10 00          	movss  (%rax),%xmm0
 1ae:	48 8b 45 e8          	mov    -0x18(%rbp),%rax
 1b2:	f3 0f 11 00          	movss  %xmm0,(%rax)
 1b6:	8b 45 f8             	mov    -0x8(%rbp),%eax
 1b9:	48 98                	cltq   
 1bb:	48 8d 14 85 00 00 00 	lea    0x0(,%rax,4),%rdx
 1c2:	00 
 1c3:	48 8b 45 c0          	mov    -0x40(%rbp),%rax
 1c7:	48 01 d0             	add    %rdx,%rax
 1ca:	f3 0f 10 00          	movss  (%rax),%xmm0
 1ce:	48 8b 45 e0          	mov    -0x20(%rbp),%rax
 1d2:	f3 0f 11 00          	movss  %xmm0,(%rax)
 1d6:	48 8b 45 e8          	mov    -0x18(%rbp),%rax
 1da:	f3 0f 10 08          	movss  (%rax),%xmm1
 1de:	48 8b 45 f0          	mov    -0x10(%rbp),%rax
 1e2:	f3 0f 10 00          	movss  (%rax),%xmm0
 1e6:	f3 0f 59 c1          	mulss  %xmm1,%xmm0
 1ea:	48 8b 45 d8          	mov    -0x28(%rbp),%rax
 1ee:	f3 0f 11 00          	movss  %xmm0,(%rax)
 1f2:	48 8b 45 d8          	mov    -0x28(%rbp),%rax
 1f6:	f3 0f 10 08          	movss  (%rax),%xmm1
 1fa:	48 8b 45 e0          	mov    -0x20(%rbp),%rax
 1fe:	f3 0f 10 00          	movss  (%rax),%xmm0
 202:	f3 0f 58 c1          	addss  %xmm1,%xmm0
 206:	48 8b 45 d0          	mov    -0x30(%rbp),%rax
 20a:	f3 0f 11 00          	movss  %xmm0,(%rax)
 20e:	8b 45 f8             	mov    -0x8(%rbp),%eax
 211:	48 98                	cltq   
 213:	48 8d 14 85 00 00 00 	lea    0x0(,%rax,4),%rdx
 21a:	00 
 21b:	48 8b 45 b8          	mov    -0x48(%rbp),%rax
 21f:	48 01 d0             	add    %rdx,%rax
 222:	f3 0f 10 00          	movss  (%rax),%xmm0
 226:	48 8b 45 d0          	mov    -0x30(%rbp),%rax
 22a:	f3 0f 10 08          	movss  (%rax),%xmm1
 22e:	0f 2e c1             	ucomiss %xmm1,%xmm0
 231:	0f 9a c0             	setp   %al
 234:	ba 01 00 00 00       	mov    $0x1,%edx
 239:	0f 2e c1             	ucomiss %xmm1,%xmm0
 23c:	0f 45 c2             	cmovne %edx,%eax
 23f:	84 c0                	test   %al,%al
 241:	0f 84 9f 01 00 00    	je     3e6 <_Z12verifyVectorPfS_S_fi+0x2d2>
 247:	83 45 fc 01          	addl   $0x1,-0x4(%rbp)
 24b:	8b 45 f8             	mov    -0x8(%rbp),%eax
 24e:	48 98                	cltq   
 250:	48 8d 14 85 00 00 00 	lea    0x0(,%rax,4),%rdx
 257:	00 
 258:	48 8b 45 c8          	mov    -0x38(%rbp),%rax
 25c:	48 01 d0             	add    %rdx,%rax
 25f:	f3 0f 10 00          	movss  (%rax),%xmm0
 263:	0f 28 c8             	movaps %xmm0,%xmm1
 266:	f3 0f 59 4d b4       	mulss  -0x4c(%rbp),%xmm1
 26b:	8b 45 f8             	mov    -0x8(%rbp),%eax
 26e:	48 98                	cltq   
 270:	48 8d 14 85 00 00 00 	lea    0x0(,%rax,4),%rdx
 277:	00 
 278:	48 8b 45 c0          	mov    -0x40(%rbp),%rax
 27c:	48 01 d0             	add    %rdx,%rax
 27f:	f3 0f 10 00          	movss  (%rax),%xmm0
 283:	f3 0f 58 c1          	addss  %xmm1,%xmm0
 287:	f3 0f 5a c0          	cvtss2sd %xmm0,%xmm0
 28b:	8b 45 f8             	mov    -0x8(%rbp),%eax
 28e:	48 98                	cltq   
 290:	48 8d 14 85 00 00 00 	lea    0x0(,%rax,4),%rdx
 297:	00 
 298:	48 8b 45 b8          	mov    -0x48(%rbp),%rax
 29c:	48 01 d0             	add    %rdx,%rax
 29f:	f3 0f 10 08          	movss  (%rax),%xmm1
 2a3:	66 0f ef d2          	pxor   %xmm2,%xmm2
 2a7:	f3 0f 5a d1          	cvtss2sd %xmm1,%xmm2
 2ab:	66 48 0f 7e d0       	movq   %xmm2,%rax
 2b0:	66 0f 28 c8          	movapd %xmm0,%xmm1
 2b4:	66 48 0f 6e c0       	movq   %rax,%xmm0
 2b9:	bf 00 00 00 00       	mov    $0x0,%edi
 2be:	b8 02 00 00 00       	mov    $0x2,%eax
 2c3:	e8 00 00 00 00       	callq  2c8 <_Z12verifyVectorPfS_S_fi+0x1b4>
 2c8:	be 00 00 00 00       	mov    $0x0,%esi
 2cd:	bf 00 00 00 00       	mov    $0x0,%edi
 2d2:	e8 00 00 00 00       	callq  2d7 <_Z12verifyVectorPfS_S_fi+0x1c3>
 2d7:	48 89 c2             	mov    %rax,%rdx
 2da:	8b 45 f8             	mov    -0x8(%rbp),%eax
 2dd:	89 c6                	mov    %eax,%esi
 2df:	48 89 d7             	mov    %rdx,%rdi
 2e2:	e8 00 00 00 00       	callq  2e7 <_Z12verifyVectorPfS_S_fi+0x1d3>
 2e7:	be 00 00 00 00       	mov    $0x0,%esi
 2ec:	48 89 c7             	mov    %rax,%rdi
 2ef:	e8 00 00 00 00       	callq  2f4 <_Z12verifyVectorPfS_S_fi+0x1e0>
 2f4:	48 89 c2             	mov    %rax,%rdx
 2f7:	8b 45 f8             	mov    -0x8(%rbp),%eax
 2fa:	48 98                	cltq   
 2fc:	48 8d 0c 85 00 00 00 	lea    0x0(,%rax,4),%rcx
 303:	00 
 304:	48 8b 45 c8          	mov    -0x38(%rbp),%rax
 308:	48 01 c8             	add    %rcx,%rax
 30b:	f3 0f 10 00          	movss  (%rax),%xmm0
 30f:	0f 28 c8             	movaps %xmm0,%xmm1
 312:	f3 0f 59 4d b4       	mulss  -0x4c(%rbp),%xmm1
 317:	8b 45 f8             	mov    -0x8(%rbp),%eax
 31a:	48 98                	cltq   
 31c:	48 8d 0c 85 00 00 00 	lea    0x0(,%rax,4),%rcx
 323:	00 
 324:	48 8b 45 c0          	mov    -0x40(%rbp),%rax
 328:	48 01 c8             	add    %rcx,%rax
 32b:	f3 0f 10 00          	movss  (%rax),%xmm0
 32f:	f3 0f 58 c8          	addss  %xmm0,%xmm1
 333:	66 0f 7e c8          	movd   %xmm1,%eax
 337:	66 0f 6e c0          	movd   %eax,%xmm0
 33b:	48 89 d7             	mov    %rdx,%rdi
 33e:	e8 00 00 00 00       	callq  343 <_Z12verifyVectorPfS_S_fi+0x22f>
 343:	be 00 00 00 00       	mov    $0x0,%esi
 348:	48 89 c7             	mov    %rax,%rdi
 34b:	e8 00 00 00 00       	callq  350 <_Z12verifyVectorPfS_S_fi+0x23c>
 350:	48 89 c2             	mov    %rax,%rdx
 353:	8b 45 f8             	mov    -0x8(%rbp),%eax
 356:	48 98                	cltq   
 358:	48 8d 0c 85 00 00 00 	lea    0x0(,%rax,4),%rcx
 35f:	00 
 360:	48 8b 45 b8          	mov    -0x48(%rbp),%rax
 364:	48 01 c8             	add    %rcx,%rax
 367:	8b 00                	mov    (%rax),%eax
 369:	66 0f 6e c0          	movd   %eax,%xmm0
 36d:	48 89 d7             	mov    %rdx,%rdi
 370:	e8 00 00 00 00       	callq  375 <_Z12verifyVectorPfS_S_fi+0x261>
 375:	be 00 00 00 00       	mov    $0x0,%esi
 37a:	48 89 c7             	mov    %rax,%rdi
 37d:	e8 00 00 00 00       	callq  382 <_Z12verifyVectorPfS_S_fi+0x26e>
 382:	48 89 c2             	mov    %rax,%rdx
 385:	8b 45 f8             	mov    -0x8(%rbp),%eax
 388:	48 98                	cltq   
 38a:	48 8d 0c 85 00 00 00 	lea    0x0(,%rax,4),%rcx
 391:	00 
 392:	48 8b 45 c8          	mov    -0x38(%rbp),%rax
 396:	48 01 c8             	add    %rcx,%rax
 399:	8b 00                	mov    (%rax),%eax
 39b:	66 0f 6e c0          	movd   %eax,%xmm0
 39f:	48 89 d7             	mov    %rdx,%rdi
 3a2:	e8 00 00 00 00       	callq  3a7 <_Z12verifyVectorPfS_S_fi+0x293>
 3a7:	be 00 00 00 00       	mov    $0x0,%esi
 3ac:	48 89 c7             	mov    %rax,%rdi
 3af:	e8 00 00 00 00       	callq  3b4 <_Z12verifyVectorPfS_S_fi+0x2a0>
 3b4:	48 89 c2             	mov    %rax,%rdx
 3b7:	8b 45 f8             	mov    -0x8(%rbp),%eax
 3ba:	48 98                	cltq   
 3bc:	48 8d 0c 85 00 00 00 	lea    0x0(,%rax,4),%rcx
 3c3:	00 
 3c4:	48 8b 45 c0          	mov    -0x40(%rbp),%rax
 3c8:	48 01 c8             	add    %rcx,%rax
 3cb:	8b 00                	mov    (%rax),%eax
 3cd:	66 0f 6e c0          	movd   %eax,%xmm0
 3d1:	48 89 d7             	mov    %rdx,%rdi
 3d4:	e8 00 00 00 00       	callq  3d9 <_Z12verifyVectorPfS_S_fi+0x2c5>
 3d9:	be 00 00 00 00       	mov    $0x0,%esi
 3de:	48 89 c7             	mov    %rax,%rdi
 3e1:	e8 00 00 00 00       	callq  3e6 <_Z12verifyVectorPfS_S_fi+0x2d2>
 3e6:	83 45 f8 01          	addl   $0x1,-0x8(%rbp)
 3ea:	8b 45 f8             	mov    -0x8(%rbp),%eax
 3ed:	3b 45 b0             	cmp    -0x50(%rbp),%eax
 3f0:	0f 8c 4d fd ff ff    	jl     143 <_Z12verifyVectorPfS_S_fi+0x2f>
 3f6:	8b 45 fc             	mov    -0x4(%rbp),%eax
 3f9:	c9                   	leaveq 
 3fa:	c3                   	retq   

00000000000003fb <_Z11printVectorPfi>:
 3fb:	55                   	push   %rbp
 3fc:	48 89 e5             	mov    %rsp,%rbp
 3ff:	48 83 ec 20          	sub    $0x20,%rsp
 403:	48 89 7d e8          	mov    %rdi,-0x18(%rbp)
 407:	89 75 e4             	mov    %esi,-0x1c(%rbp)
 40a:	c7 45 f8 05 00 00 00 	movl   $0x5,-0x8(%rbp)
 411:	be 00 00 00 00       	mov    $0x0,%esi
 416:	bf 00 00 00 00       	mov    $0x0,%edi
 41b:	e8 00 00 00 00       	callq  420 <_Z11printVectorPfi+0x25>
 420:	c7 45 fc 00 00 00 00 	movl   $0x0,-0x4(%rbp)
 427:	eb 62                	jmp    48b <_Z11printVectorPfi+0x90>
 429:	be 00 00 00 00       	mov    $0x0,%esi
 42e:	bf 00 00 00 00       	mov    $0x0,%edi
 433:	e8 00 00 00 00       	callq  438 <_Z11printVectorPfi+0x3d>
 438:	48 89 c2             	mov    %rax,%rdx
 43b:	8b 45 fc             	mov    -0x4(%rbp),%eax
 43e:	89 c6                	mov    %eax,%esi
 440:	48 89 d7             	mov    %rdx,%rdi
 443:	e8 00 00 00 00       	callq  448 <_Z11printVectorPfi+0x4d>
 448:	be 00 00 00 00       	mov    $0x0,%esi
 44d:	48 89 c7             	mov    %rax,%rdi
 450:	e8 00 00 00 00       	callq  455 <_Z11printVectorPfi+0x5a>
 455:	48 89 c2             	mov    %rax,%rdx
 458:	8b 45 fc             	mov    -0x4(%rbp),%eax
 45b:	48 98                	cltq   
 45d:	48 8d 0c 85 00 00 00 	lea    0x0(,%rax,4),%rcx
 464:	00 
 465:	48 8b 45 e8          	mov    -0x18(%rbp),%rax
 469:	48 01 c8             	add    %rcx,%rax
 46c:	8b 00                	mov    (%rax),%eax
 46e:	66 0f 6e c0          	movd   %eax,%xmm0
 472:	48 89 d7             	mov    %rdx,%rdi
 475:	e8 00 00 00 00       	callq  47a <_Z11printVectorPfi+0x7f>
 47a:	be 00 00 00 00       	mov    $0x0,%esi
 47f:	48 89 c7             	mov    %rax,%rdi
 482:	e8 00 00 00 00       	callq  487 <_Z11printVectorPfi+0x8c>
 487:	83 45 fc 01          	addl   $0x1,-0x4(%rbp)
 48b:	48 8d 55 f8          	lea    -0x8(%rbp),%rdx
 48f:	48 8d 45 e4          	lea    -0x1c(%rbp),%rax
 493:	48 89 d6             	mov    %rdx,%rsi
 496:	48 89 c7             	mov    %rax,%rdi
 499:	e8 00 00 00 00       	callq  49e <_Z11printVectorPfi+0xa3>
 49e:	8b 00                	mov    (%rax),%eax
 4a0:	39 45 fc             	cmp    %eax,-0x4(%rbp)
 4a3:	0f 9c c0             	setl   %al
 4a6:	84 c0                	test   %al,%al
 4a8:	0f 85 7b ff ff ff    	jne    429 <_Z11printVectorPfi+0x2e>
 4ae:	be 00 00 00 00       	mov    $0x0,%esi
 4b3:	bf 00 00 00 00       	mov    $0x0,%edi
 4b8:	e8 00 00 00 00       	callq  4bd <_Z11printVectorPfi+0xc2>
 4bd:	90                   	nop
 4be:	c9                   	leaveq 
 4bf:	c3                   	retq   

00000000000004c0 <_Z9saxpy_cpuPfS_fm>:
 4c0:	55                   	push   %rbp
 4c1:	48 89 e5             	mov    %rsp,%rbp
 4c4:	48 89 7d e8          	mov    %rdi,-0x18(%rbp)
 4c8:	48 89 75 e0          	mov    %rsi,-0x20(%rbp)
 4cc:	f3 0f 11 45 dc       	movss  %xmm0,-0x24(%rbp)
 4d1:	48 89 55 d0          	mov    %rdx,-0x30(%rbp)
 4d5:	48 c7 45 f8 00 00 00 	movq   $0x0,-0x8(%rbp)
 4dc:	00 
 4dd:	eb 56                	jmp    535 <_Z9saxpy_cpuPfS_fm+0x75>
 4df:	48 8b 45 f8          	mov    -0x8(%rbp),%rax
 4e3:	48 8d 14 85 00 00 00 	lea    0x0(,%rax,4),%rdx
 4ea:	00 
 4eb:	48 8b 45 e8          	mov    -0x18(%rbp),%rax
 4ef:	48 01 d0             	add    %rdx,%rax
 4f2:	f3 0f 10 00          	movss  (%rax),%xmm0
 4f6:	0f 28 c8             	movaps %xmm0,%xmm1
 4f9:	f3 0f 59 4d dc       	mulss  -0x24(%rbp),%xmm1
 4fe:	48 8b 45 f8          	mov    -0x8(%rbp),%rax
 502:	48 8d 14 85 00 00 00 	lea    0x0(,%rax,4),%rdx
 509:	00 
 50a:	48 8b 45 e0          	mov    -0x20(%rbp),%rax
 50e:	48 01 d0             	add    %rdx,%rax
 511:	f3 0f 10 00          	movss  (%rax),%xmm0
 515:	48 8b 45 f8          	mov    -0x8(%rbp),%rax
 519:	48 8d 14 85 00 00 00 	lea    0x0(,%rax,4),%rdx
 520:	00 
 521:	48 8b 45 e0          	mov    -0x20(%rbp),%rax
 525:	48 01 d0             	add    %rdx,%rax
 528:	f3 0f 58 c1          	addss  %xmm1,%xmm0
 52c:	f3 0f 11 00          	movss  %xmm0,(%rax)
 530:	48 83 45 f8 01       	addq   $0x1,-0x8(%rbp)
 535:	48 8b 45 f8          	mov    -0x8(%rbp),%rax
 539:	48 3b 45 d0          	cmp    -0x30(%rbp),%rax
 53d:	72 a0                	jb     4df <_Z9saxpy_cpuPfS_fm+0x1f>
 53f:	90                   	nop
 540:	90                   	nop
 541:	5d                   	pop    %rbp
 542:	c3                   	retq   

0000000000000543 <_Z11runCpuSaxpym>:
 543:	55                   	push   %rbp
 544:	48 89 e5             	mov    %rsp,%rbp
 547:	48 83 ec 50          	sub    $0x50,%rsp
 54b:	48 89 7d b8          	mov    %rdi,-0x48(%rbp)
 54f:	48 8b 45 b8          	mov    -0x48(%rbp),%rax
 553:	48 c1 e0 02          	shl    $0x2,%rax
 557:	48 89 45 e8          	mov    %rax,-0x18(%rbp)
 55b:	bf 00 00 00 00       	mov    $0x0,%edi
 560:	e8 00 00 00 00       	callq  565 <_Z11runCpuSaxpym+0x22>
 565:	48 8b 45 b8          	mov    -0x48(%rbp),%rax
 569:	48 c1 e0 02          	shl    $0x2,%rax
 56d:	48 89 c7             	mov    %rax,%rdi
 570:	e8 00 00 00 00       	callq  575 <_Z11runCpuSaxpym+0x32>
 575:	48 89 45 e0          	mov    %rax,-0x20(%rbp)
 579:	48 8b 45 b8          	mov    -0x48(%rbp),%rax
 57d:	48 c1 e0 02          	shl    $0x2,%rax
 581:	48 89 c7             	mov    %rax,%rdi
 584:	e8 00 00 00 00       	callq  589 <_Z11runCpuSaxpym+0x46>
 589:	48 89 45 d8          	mov    %rax,-0x28(%rbp)
 58d:	48 8b 45 b8          	mov    -0x48(%rbp),%rax
 591:	48 c1 e0 02          	shl    $0x2,%rax
 595:	48 89 c7             	mov    %rax,%rdi
 598:	e8 00 00 00 00       	callq  59d <_Z11runCpuSaxpym+0x5a>
 59d:	48 89 45 d0          	mov    %rax,-0x30(%rbp)
 5a1:	48 83 7d e0 00       	cmpq   $0x0,-0x20(%rbp)
 5a6:	74 0e                	je     5b6 <_Z11runCpuSaxpym+0x73>
 5a8:	48 83 7d d8 00       	cmpq   $0x0,-0x28(%rbp)
 5ad:	74 07                	je     5b6 <_Z11runCpuSaxpym+0x73>
 5af:	48 83 7d d0 00       	cmpq   $0x0,-0x30(%rbp)
 5b4:	75 19                	jne    5cf <_Z11runCpuSaxpym+0x8c>
 5b6:	bf 00 00 00 00       	mov    $0x0,%edi
 5bb:	b8 00 00 00 00       	mov    $0x0,%eax
 5c0:	e8 00 00 00 00       	callq  5c5 <_Z11runCpuSaxpym+0x82>
 5c5:	b8 ff ff ff ff       	mov    $0xffffffff,%eax
 5ca:	e9 41 02 00 00       	jmpq   810 <_Z11runCpuSaxpym+0x2cd>
 5cf:	48 8b 45 b8          	mov    -0x48(%rbp),%rax
 5d3:	89 c2                	mov    %eax,%edx
 5d5:	48 8b 45 e0          	mov    -0x20(%rbp),%rax
 5d9:	89 d6                	mov    %edx,%esi
 5db:	48 89 c7             	mov    %rax,%rdi
 5de:	e8 00 00 00 00       	callq  5e3 <_Z11runCpuSaxpym+0xa0>
 5e3:	48 8b 45 b8          	mov    -0x48(%rbp),%rax
 5e7:	89 c2                	mov    %eax,%edx
 5e9:	48 8b 45 d8          	mov    -0x28(%rbp),%rax
 5ed:	89 d6                	mov    %edx,%esi
 5ef:	48 89 c7             	mov    %rax,%rdi
 5f2:	e8 00 00 00 00       	callq  5f7 <_Z11runCpuSaxpym+0xb4>
 5f7:	48 8b 45 b8          	mov    -0x48(%rbp),%rax
 5fb:	48 8d 14 85 00 00 00 	lea    0x0(,%rax,4),%rdx
 602:	00 
 603:	48 8b 4d d8          	mov    -0x28(%rbp),%rcx
 607:	48 8b 45 d0          	mov    -0x30(%rbp),%rax
 60b:	48 89 ce             	mov    %rcx,%rsi
 60e:	48 89 c7             	mov    %rax,%rdi
 611:	e8 00 00 00 00       	callq  616 <_Z11runCpuSaxpym+0xd3>
 616:	f3 0f 10 05 00 00 00 	movss  0x0(%rip),%xmm0        # 61e <_Z11runCpuSaxpym+0xdb>
 61d:	00 
 61e:	f3 0f 11 45 cc       	movss  %xmm0,-0x34(%rbp)
 623:	bf 00 00 00 00       	mov    $0x0,%edi
 628:	e8 00 00 00 00       	callq  62d <_Z11runCpuSaxpym+0xea>
 62d:	66 0f ef c9          	pxor   %xmm1,%xmm1
 631:	f3 0f 5a 4d cc       	cvtss2sd -0x34(%rbp),%xmm1
 636:	66 48 0f 7e c8       	movq   %xmm1,%rax
 63b:	66 48 0f 6e c0       	movq   %rax,%xmm0
 640:	bf 00 00 00 00       	mov    $0x0,%edi
 645:	b8 01 00 00 00       	mov    $0x1,%eax
 64a:	e8 00 00 00 00       	callq  64f <_Z11runCpuSaxpym+0x10c>
 64f:	bf 00 00 00 00       	mov    $0x0,%edi
 654:	b8 00 00 00 00       	mov    $0x0,%eax
 659:	e8 00 00 00 00       	callq  65e <_Z11runCpuSaxpym+0x11b>
 65e:	c7 45 fc 00 00 00 00 	movl   $0x0,-0x4(%rbp)
 665:	eb 3d                	jmp    6a4 <_Z11runCpuSaxpym+0x161>
 667:	8b 45 fc             	mov    -0x4(%rbp),%eax
 66a:	48 98                	cltq   
 66c:	48 8d 14 85 00 00 00 	lea    0x0(,%rax,4),%rdx
 673:	00 
 674:	48 8b 45 e0          	mov    -0x20(%rbp),%rax
 678:	48 01 d0             	add    %rdx,%rax
 67b:	f3 0f 10 00          	movss  (%rax),%xmm0
 67f:	66 0f ef d2          	pxor   %xmm2,%xmm2
 683:	f3 0f 5a d0          	cvtss2sd %xmm0,%xmm2
 687:	66 48 0f 7e d0       	movq   %xmm2,%rax
 68c:	66 48 0f 6e c0       	movq   %rax,%xmm0
 691:	bf 00 00 00 00       	mov    $0x0,%edi
 696:	b8 01 00 00 00       	mov    $0x1,%eax
 69b:	e8 00 00 00 00       	callq  6a0 <_Z11runCpuSaxpym+0x15d>
 6a0:	83 45 fc 01          	addl   $0x1,-0x4(%rbp)
 6a4:	83 7d fc 04          	cmpl   $0x4,-0x4(%rbp)
 6a8:	7e bd                	jle    667 <_Z11runCpuSaxpym+0x124>
 6aa:	bf 00 00 00 00       	mov    $0x0,%edi
 6af:	e8 00 00 00 00       	callq  6b4 <_Z11runCpuSaxpym+0x171>
 6b4:	bf 00 00 00 00       	mov    $0x0,%edi
 6b9:	b8 00 00 00 00       	mov    $0x0,%eax
 6be:	e8 00 00 00 00       	callq  6c3 <_Z11runCpuSaxpym+0x180>
 6c3:	c7 45 f8 00 00 00 00 	movl   $0x0,-0x8(%rbp)
 6ca:	eb 3d                	jmp    709 <_Z11runCpuSaxpym+0x1c6>
 6cc:	8b 45 f8             	mov    -0x8(%rbp),%eax
 6cf:	48 98                	cltq   
 6d1:	48 8d 14 85 00 00 00 	lea    0x0(,%rax,4),%rdx
 6d8:	00 
 6d9:	48 8b 45 d8          	mov    -0x28(%rbp),%rax
 6dd:	48 01 d0             	add    %rdx,%rax
 6e0:	f3 0f 10 00          	movss  (%rax),%xmm0
 6e4:	66 0f ef db          	pxor   %xmm3,%xmm3
 6e8:	f3 0f 5a d8          	cvtss2sd %xmm0,%xmm3
 6ec:	66 48 0f 7e d8       	movq   %xmm3,%rax
 6f1:	66 48 0f 6e c0       	movq   %rax,%xmm0
 6f6:	bf 00 00 00 00       	mov    $0x0,%edi
 6fb:	b8 01 00 00 00       	mov    $0x1,%eax
 700:	e8 00 00 00 00       	callq  705 <_Z11runCpuSaxpym+0x1c2>
 705:	83 45 f8 01          	addl   $0x1,-0x8(%rbp)
 709:	83 7d f8 04          	cmpl   $0x4,-0x8(%rbp)
 70d:	7e bd                	jle    6cc <_Z11runCpuSaxpym+0x189>
 70f:	bf 00 00 00 00       	mov    $0x0,%edi
 714:	e8 00 00 00 00       	callq  719 <_Z11runCpuSaxpym+0x1d6>
 719:	48 8b 55 b8          	mov    -0x48(%rbp),%rdx
 71d:	8b 75 cc             	mov    -0x34(%rbp),%esi
 720:	48 8b 4d d0          	mov    -0x30(%rbp),%rcx
 724:	48 8b 45 e0          	mov    -0x20(%rbp),%rax
 728:	66 0f 6e c6          	movd   %esi,%xmm0
 72c:	48 89 ce             	mov    %rcx,%rsi
 72f:	48 89 c7             	mov    %rax,%rdi
 732:	e8 00 00 00 00       	callq  737 <_Z11runCpuSaxpym+0x1f4>
 737:	bf 00 00 00 00       	mov    $0x0,%edi
 73c:	b8 00 00 00 00       	mov    $0x0,%eax
 741:	e8 00 00 00 00       	callq  746 <_Z11runCpuSaxpym+0x203>
 746:	c7 45 f4 00 00 00 00 	movl   $0x0,-0xc(%rbp)
 74d:	eb 3d                	jmp    78c <_Z11runCpuSaxpym+0x249>
 74f:	8b 45 f4             	mov    -0xc(%rbp),%eax
 752:	48 98                	cltq   
 754:	48 8d 14 85 00 00 00 	lea    0x0(,%rax,4),%rdx
 75b:	00 
 75c:	48 8b 45 d0          	mov    -0x30(%rbp),%rax
 760:	48 01 d0             	add    %rdx,%rax
 763:	f3 0f 10 00          	movss  (%rax),%xmm0
 767:	66 0f ef e4          	pxor   %xmm4,%xmm4
 76b:	f3 0f 5a e0          	cvtss2sd %xmm0,%xmm4
 76f:	66 48 0f 7e e0       	movq   %xmm4,%rax
 774:	66 48 0f 6e c0       	movq   %rax,%xmm0
 779:	bf 00 00 00 00       	mov    $0x0,%edi
 77e:	b8 01 00 00 00       	mov    $0x1,%eax
 783:	e8 00 00 00 00       	callq  788 <_Z11runCpuSaxpym+0x245>
 788:	83 45 f4 01          	addl   $0x1,-0xc(%rbp)
 78c:	83 7d f4 04          	cmpl   $0x4,-0xc(%rbp)
 790:	7e bd                	jle    74f <_Z11runCpuSaxpym+0x20c>
 792:	bf 00 00 00 00       	mov    $0x0,%edi
 797:	e8 00 00 00 00       	callq  79c <_Z11runCpuSaxpym+0x259>
 79c:	48 8b 45 b8          	mov    -0x48(%rbp),%rax
 7a0:	89 c1                	mov    %eax,%ecx
 7a2:	8b 7d cc             	mov    -0x34(%rbp),%edi
 7a5:	48 8b 55 d0          	mov    -0x30(%rbp),%rdx
 7a9:	48 8b 75 d8          	mov    -0x28(%rbp),%rsi
 7ad:	48 8b 45 e0          	mov    -0x20(%rbp),%rax
 7b1:	66 0f 6e c7          	movd   %edi,%xmm0
 7b5:	48 89 c7             	mov    %rax,%rdi
 7b8:	e8 00 00 00 00       	callq  7bd <_Z11runCpuSaxpym+0x27a>
 7bd:	89 45 c8             	mov    %eax,-0x38(%rbp)
 7c0:	be 00 00 00 00       	mov    $0x0,%esi
 7c5:	bf 00 00 00 00       	mov    $0x0,%edi
 7ca:	e8 00 00 00 00       	callq  7cf <_Z11runCpuSaxpym+0x28c>
 7cf:	48 89 c2             	mov    %rax,%rdx
 7d2:	8b 45 c8             	mov    -0x38(%rbp),%eax
 7d5:	89 c6                	mov    %eax,%esi
 7d7:	48 89 d7             	mov    %rdx,%rdi
 7da:	e8 00 00 00 00       	callq  7df <_Z11runCpuSaxpym+0x29c>
 7df:	be 00 00 00 00       	mov    $0x0,%esi
 7e4:	48 89 c7             	mov    %rax,%rdi
 7e7:	e8 00 00 00 00       	callq  7ec <_Z11runCpuSaxpym+0x2a9>
 7ec:	48 89 c2             	mov    %rax,%rdx
 7ef:	48 8b 45 b8          	mov    -0x48(%rbp),%rax
 7f3:	48 89 c6             	mov    %rax,%rsi
 7f6:	48 89 d7             	mov    %rdx,%rdi
 7f9:	e8 00 00 00 00       	callq  7fe <_Z11runCpuSaxpym+0x2bb>
 7fe:	be 00 00 00 00       	mov    $0x0,%esi
 803:	48 89 c7             	mov    %rax,%rdi
 806:	e8 00 00 00 00       	callq  80b <_Z11runCpuSaxpym+0x2c8>
 80b:	b8 00 00 00 00       	mov    $0x0,%eax
 810:	c9                   	leaveq 
 811:	c3                   	retq   

0000000000000812 <_Z10runCpuMCPimm>:
 812:	55                   	push   %rbp
 813:	48 89 e5             	mov    %rsp,%rbp
 816:	53                   	push   %rbx
 817:	48 81 ec 78 14 00 00 	sub    $0x1478,%rsp
 81e:	48 89 bd 88 eb ff ff 	mov    %rdi,-0x1478(%rbp)
 825:	48 89 b5 80 eb ff ff 	mov    %rsi,-0x1480(%rbp)
 82c:	48 8d 85 e0 eb ff ff 	lea    -0x1420(%rbp),%rax
 833:	48 89 c7             	mov    %rax,%rdi
 836:	e8 00 00 00 00       	callq  83b <_Z10runCpuMCPimm+0x29>
 83b:	48 8d 85 d8 eb ff ff 	lea    -0x1428(%rbp),%rax
 842:	f3 0f 10 0d 00 00 00 	movss  0x0(%rip),%xmm1        # 84a <_Z10runCpuMCPimm+0x38>
 849:	00 
 84a:	8b 15 00 00 00 00    	mov    0x0(%rip),%edx        # 850 <_Z10runCpuMCPimm+0x3e>
 850:	66 0f 6e c2          	movd   %edx,%xmm0
 854:	48 89 c7             	mov    %rax,%rdi
 857:	e8 00 00 00 00       	callq  85c <_Z10runCpuMCPimm+0x4a>
 85c:	48 c7 45 e8 00 00 00 	movq   $0x0,-0x18(%rbp)
 863:	00 
 864:	48 c7 45 e0 00 00 00 	movq   $0x0,-0x20(%rbp)
 86b:	00 
 86c:	48 8d 85 b0 eb ff ff 	lea    -0x1450(%rbp),%rax
 873:	48 89 c7             	mov    %rax,%rdi
 876:	e8 00 00 00 00       	callq  87b <_Z10runCpuMCPimm+0x69>
 87b:	e8 00 00 00 00       	callq  880 <_Z10runCpuMCPimm+0x6e>
 880:	48 89 85 a8 eb ff ff 	mov    %rax,-0x1458(%rbp)
 887:	be 00 00 00 00       	mov    $0x0,%esi
 88c:	bf 00 00 00 00       	mov    $0x0,%edi
 891:	e8 00 00 00 00       	callq  896 <_Z10runCpuMCPimm+0x84>
 896:	c7 45 dc 00 00 00 00 	movl   $0x0,-0x24(%rbp)
 89d:	e9 5f 01 00 00       	jmpq   a01 <_Z10runCpuMCPimm+0x1ef>
 8a2:	48 c7 45 e8 00 00 00 	movq   $0x0,-0x18(%rbp)
 8a9:	00 
 8aa:	48 8d 85 70 ff ff ff 	lea    -0x90(%rbp),%rax
 8b1:	8b 55 dc             	mov    -0x24(%rbp),%edx
 8b4:	89 d6                	mov    %edx,%esi
 8b6:	48 89 c7             	mov    %rax,%rdi
 8b9:	e8 00 00 00 00       	callq  8be <_Z10runCpuMCPimm+0xac>
 8be:	48 8d 95 70 ff ff ff 	lea    -0x90(%rbp),%rdx
 8c5:	48 8d 85 b0 eb ff ff 	lea    -0x1450(%rbp),%rax
 8cc:	48 89 d6             	mov    %rdx,%rsi
 8cf:	48 89 c7             	mov    %rax,%rdi
 8d2:	e8 00 00 00 00       	callq  8d7 <_Z10runCpuMCPimm+0xc5>
 8d7:	48 8d 85 70 ff ff ff 	lea    -0x90(%rbp),%rax
 8de:	48 89 c7             	mov    %rax,%rdi
 8e1:	e8 00 00 00 00       	callq  8e6 <_Z10runCpuMCPimm+0xd4>
 8e6:	48 8d 85 b0 eb ff ff 	lea    -0x1450(%rbp),%rax
 8ed:	48 89 c6             	mov    %rax,%rsi
 8f0:	bf 00 00 00 00       	mov    $0x0,%edi
 8f5:	e8 00 00 00 00       	callq  8fa <_Z10runCpuMCPimm+0xe8>
 8fa:	be 00 00 00 00       	mov    $0x0,%esi
 8ff:	48 89 c7             	mov    %rax,%rdi
 902:	e8 00 00 00 00       	callq  907 <_Z10runCpuMCPimm+0xf5>
 907:	48 c7 45 d0 00 00 00 	movq   $0x0,-0x30(%rbp)
 90e:	00 
 90f:	eb 6b                	jmp    97c <_Z10runCpuMCPimm+0x16a>
 911:	48 8d 95 e0 eb ff ff 	lea    -0x1420(%rbp),%rdx
 918:	48 8d 85 d8 eb ff ff 	lea    -0x1428(%rbp),%rax
 91f:	48 89 d6             	mov    %rdx,%rsi
 922:	48 89 c7             	mov    %rax,%rdi
 925:	e8 00 00 00 00       	callq  92a <_Z10runCpuMCPimm+0x118>
 92a:	66 0f 7e c0          	movd   %xmm0,%eax
 92e:	89 45 c8             	mov    %eax,-0x38(%rbp)
 931:	48 8d 95 e0 eb ff ff 	lea    -0x1420(%rbp),%rdx
 938:	48 8d 85 d8 eb ff ff 	lea    -0x1428(%rbp),%rax
 93f:	48 89 d6             	mov    %rdx,%rsi
 942:	48 89 c7             	mov    %rax,%rdi
 945:	e8 00 00 00 00       	callq  94a <_Z10runCpuMCPimm+0x138>
 94a:	66 0f 7e c0          	movd   %xmm0,%eax
 94e:	89 45 c4             	mov    %eax,-0x3c(%rbp)
 951:	f3 0f 10 45 c8       	movss  -0x38(%rbp),%xmm0
 956:	0f 28 c8             	movaps %xmm0,%xmm1
 959:	f3 0f 59 c8          	mulss  %xmm0,%xmm1
 95d:	f3 0f 10 45 c4       	movss  -0x3c(%rbp),%xmm0
 962:	f3 0f 59 c0          	mulss  %xmm0,%xmm0
 966:	f3 0f 58 c1          	addss  %xmm1,%xmm0
 96a:	f3 0f 2c c0          	cvttss2si %xmm0,%eax
 96e:	85 c0                	test   %eax,%eax
 970:	75 05                	jne    977 <_Z10runCpuMCPimm+0x165>
 972:	48 83 45 e8 01       	addq   $0x1,-0x18(%rbp)
 977:	48 83 45 d0 01       	addq   $0x1,-0x30(%rbp)
 97c:	48 8b 45 d0          	mov    -0x30(%rbp),%rax
 980:	48 3b 85 80 eb ff ff 	cmp    -0x1480(%rbp),%rax
 987:	72 88                	jb     911 <_Z10runCpuMCPimm+0xff>
 989:	48 8d 45 b7          	lea    -0x49(%rbp),%rax
 98d:	48 89 c7             	mov    %rax,%rdi
 990:	e8 00 00 00 00       	callq  995 <_Z10runCpuMCPimm+0x183>
 995:	48 8d 85 b0 eb ff ff 	lea    -0x1450(%rbp),%rax
 99c:	48 89 c7             	mov    %rax,%rdi
 99f:	e8 00 00 00 00       	callq  9a4 <_Z10runCpuMCPimm+0x192>
 9a4:	48 89 c6             	mov    %rax,%rsi
 9a7:	48 8d 55 b7          	lea    -0x49(%rbp),%rdx
 9ab:	48 8d 45 90          	lea    -0x70(%rbp),%rax
 9af:	48 89 d1             	mov    %rdx,%rcx
 9b2:	ba 08 00 00 00       	mov    $0x8,%edx
 9b7:	48 89 c7             	mov    %rax,%rdi
 9ba:	e8 00 00 00 00       	callq  9bf <_Z10runCpuMCPimm+0x1ad>
 9bf:	48 8d 45 90          	lea    -0x70(%rbp),%rax
 9c3:	48 89 c6             	mov    %rax,%rsi
 9c6:	bf 00 00 00 00       	mov    $0x0,%edi
 9cb:	e8 00 00 00 00       	callq  9d0 <_Z10runCpuMCPimm+0x1be>
 9d0:	be 00 00 00 00       	mov    $0x0,%esi
 9d5:	48 89 c7             	mov    %rax,%rdi
 9d8:	e8 00 00 00 00       	callq  9dd <_Z10runCpuMCPimm+0x1cb>
 9dd:	48 8d 45 90          	lea    -0x70(%rbp),%rax
 9e1:	48 89 c7             	mov    %rax,%rdi
 9e4:	e8 00 00 00 00       	callq  9e9 <_Z10runCpuMCPimm+0x1d7>
 9e9:	48 8d 45 b7          	lea    -0x49(%rbp),%rax
 9ed:	48 89 c7             	mov    %rax,%rdi
 9f0:	e8 00 00 00 00       	callq  9f5 <_Z10runCpuMCPimm+0x1e3>
 9f5:	48 8b 45 e8          	mov    -0x18(%rbp),%rax
 9f9:	48 01 45 e0          	add    %rax,-0x20(%rbp)
 9fd:	83 45 dc 01          	addl   $0x1,-0x24(%rbp)
 a01:	8b 45 dc             	mov    -0x24(%rbp),%eax
 a04:	48 98                	cltq   
 a06:	48 39 85 88 eb ff ff 	cmp    %rax,-0x1478(%rbp)
 a0d:	0f 87 8f fe ff ff    	ja     8a2 <_Z10runCpuMCPimm+0x90>
 a13:	48 8d 85 b0 eb ff ff 	lea    -0x1450(%rbp),%rax
 a1a:	48 89 c6             	mov    %rax,%rsi
 a1d:	bf 00 00 00 00       	mov    $0x0,%edi
 a22:	e8 00 00 00 00       	callq  a27 <_Z10runCpuMCPimm+0x215>
 a27:	be 00 00 00 00       	mov    $0x0,%esi
 a2c:	48 89 c7             	mov    %rax,%rdi
 a2f:	e8 00 00 00 00       	callq  a34 <_Z10runCpuMCPimm+0x222>
 a34:	be 00 00 00 00       	mov    $0x0,%esi
 a39:	48 89 c7             	mov    %rax,%rdi
 a3c:	e8 00 00 00 00       	callq  a41 <_Z10runCpuMCPimm+0x22f>
 a41:	48 8b 45 e0          	mov    -0x20(%rbp),%rax
 a45:	48 85 c0             	test   %rax,%rax
 a48:	78 0b                	js     a55 <_Z10runCpuMCPimm+0x243>
 a4a:	66 0f ef c0          	pxor   %xmm0,%xmm0
 a4e:	f2 48 0f 2a c0       	cvtsi2sd %rax,%xmm0
 a53:	eb 19                	jmp    a6e <_Z10runCpuMCPimm+0x25c>
 a55:	48 89 c2             	mov    %rax,%rdx
 a58:	48 d1 ea             	shr    %rdx
 a5b:	83 e0 01             	and    $0x1,%eax
 a5e:	48 09 c2             	or     %rax,%rdx
 a61:	66 0f ef c0          	pxor   %xmm0,%xmm0
 a65:	f2 48 0f 2a c2       	cvtsi2sd %rdx,%xmm0
 a6a:	f2 0f 58 c0          	addsd  %xmm0,%xmm0
 a6e:	48 8b 85 80 eb ff ff 	mov    -0x1480(%rbp),%rax
 a75:	48 85 c0             	test   %rax,%rax
 a78:	78 0b                	js     a85 <_Z10runCpuMCPimm+0x273>
 a7a:	66 0f ef c9          	pxor   %xmm1,%xmm1
 a7e:	f2 48 0f 2a c8       	cvtsi2sd %rax,%xmm1
 a83:	eb 19                	jmp    a9e <_Z10runCpuMCPimm+0x28c>
 a85:	48 89 c2             	mov    %rax,%rdx
 a88:	48 d1 ea             	shr    %rdx
 a8b:	83 e0 01             	and    $0x1,%eax
 a8e:	48 09 c2             	or     %rax,%rdx
 a91:	66 0f ef c9          	pxor   %xmm1,%xmm1
 a95:	f2 48 0f 2a ca       	cvtsi2sd %rdx,%xmm1
 a9a:	f2 0f 58 c9          	addsd  %xmm1,%xmm1
 a9e:	66 0f 28 d0          	movapd %xmm0,%xmm2
 aa2:	f2 0f 5e d1          	divsd  %xmm1,%xmm2
 aa6:	48 8b 85 88 eb ff ff 	mov    -0x1478(%rbp),%rax
 aad:	48 85 c0             	test   %rax,%rax
 ab0:	78 0b                	js     abd <_Z10runCpuMCPimm+0x2ab>
 ab2:	66 0f ef c0          	pxor   %xmm0,%xmm0
 ab6:	f2 48 0f 2a c0       	cvtsi2sd %rax,%xmm0
 abb:	eb 19                	jmp    ad6 <_Z10runCpuMCPimm+0x2c4>
 abd:	48 89 c2             	mov    %rax,%rdx
 ac0:	48 d1 ea             	shr    %rdx
 ac3:	83 e0 01             	and    $0x1,%eax
 ac6:	48 09 c2             	or     %rax,%rdx
 ac9:	66 0f ef c0          	pxor   %xmm0,%xmm0
 acd:	f2 48 0f 2a c2       	cvtsi2sd %rdx,%xmm0
 ad2:	f2 0f 58 c0          	addsd  %xmm0,%xmm0
 ad6:	f2 0f 5e d0          	divsd  %xmm0,%xmm2
 ada:	66 0f 28 ca          	movapd %xmm2,%xmm1
 ade:	66 0f ef c0          	pxor   %xmm0,%xmm0
 ae2:	f2 0f 5a c1          	cvtsd2ss %xmm1,%xmm0
 ae6:	f3 0f 11 45 cc       	movss  %xmm0,-0x34(%rbp)
 aeb:	f3 0f 10 4d cc       	movss  -0x34(%rbp),%xmm1
 af0:	f3 0f 10 05 00 00 00 	movss  0x0(%rip),%xmm0        # af8 <_Z10runCpuMCPimm+0x2e6>
 af7:	00 
 af8:	f3 0f 59 c1          	mulss  %xmm1,%xmm0
 afc:	f3 0f 11 45 cc       	movss  %xmm0,-0x34(%rbp)
 b01:	bf 0a 00 00 00       	mov    $0xa,%edi
 b06:	e8 00 00 00 00       	callq  b0b <_Z10runCpuMCPimm+0x2f9>
 b0b:	89 c6                	mov    %eax,%esi
 b0d:	bf 00 00 00 00       	mov    $0x0,%edi
 b12:	e8 00 00 00 00       	callq  b17 <_Z10runCpuMCPimm+0x305>
 b17:	be 00 00 00 00       	mov    $0x0,%esi
 b1c:	bf 00 00 00 00       	mov    $0x0,%edi
 b21:	e8 00 00 00 00       	callq  b26 <_Z10runCpuMCPimm+0x314>
 b26:	48 89 c2             	mov    %rax,%rdx
 b29:	8b 45 cc             	mov    -0x34(%rbp),%eax
 b2c:	66 0f 6e c0          	movd   %eax,%xmm0
 b30:	48 89 d7             	mov    %rdx,%rdi
 b33:	e8 00 00 00 00       	callq  b38 <_Z10runCpuMCPimm+0x326>
 b38:	be 00 00 00 00       	mov    $0x0,%esi
 b3d:	48 89 c7             	mov    %rax,%rdi
 b40:	e8 00 00 00 00       	callq  b45 <_Z10runCpuMCPimm+0x333>
 b45:	e8 00 00 00 00       	callq  b4a <_Z10runCpuMCPimm+0x338>
 b4a:	48 89 85 a0 eb ff ff 	mov    %rax,-0x1460(%rbp)
 b51:	48 8d 95 a8 eb ff ff 	lea    -0x1458(%rbp),%rdx
 b58:	48 8d 85 a0 eb ff ff 	lea    -0x1460(%rbp),%rax
 b5f:	48 89 d6             	mov    %rdx,%rsi
 b62:	48 89 c7             	mov    %rax,%rdi
 b65:	e8 00 00 00 00       	callq  b6a <_Z10runCpuMCPimm+0x358>
 b6a:	48 89 45 b8          	mov    %rax,-0x48(%rbp)
 b6e:	48 8d 55 b8          	lea    -0x48(%rbp),%rdx
 b72:	48 8d 85 98 eb ff ff 	lea    -0x1468(%rbp),%rax
 b79:	48 89 d6             	mov    %rdx,%rsi
 b7c:	48 89 c7             	mov    %rax,%rdi
 b7f:	e8 00 00 00 00       	callq  b84 <_Z10runCpuMCPimm+0x372>
 b84:	be 00 00 00 00       	mov    $0x0,%esi
 b89:	bf 00 00 00 00       	mov    $0x0,%edi
 b8e:	e8 00 00 00 00       	callq  b93 <_Z10runCpuMCPimm+0x381>
 b93:	48 89 c3             	mov    %rax,%rbx
 b96:	48 8d 85 98 eb ff ff 	lea    -0x1468(%rbp),%rax
 b9d:	48 89 c7             	mov    %rax,%rdi
 ba0:	e8 00 00 00 00       	callq  ba5 <_Z10runCpuMCPimm+0x393>
 ba5:	66 48 0f 7e c0       	movq   %xmm0,%rax
 baa:	66 48 0f 6e c0       	movq   %rax,%xmm0
 baf:	48 89 df             	mov    %rbx,%rdi
 bb2:	e8 00 00 00 00       	callq  bb7 <_Z10runCpuMCPimm+0x3a5>
 bb7:	be 00 00 00 00       	mov    $0x0,%esi
 bbc:	48 89 c7             	mov    %rax,%rdi
 bbf:	e8 00 00 00 00       	callq  bc4 <_Z10runCpuMCPimm+0x3b2>
 bc4:	bb 00 00 00 00       	mov    $0x0,%ebx
 bc9:	48 8d 85 b0 eb ff ff 	lea    -0x1450(%rbp),%rax
 bd0:	48 89 c7             	mov    %rax,%rdi
 bd3:	e8 00 00 00 00       	callq  bd8 <_Z10runCpuMCPimm+0x3c6>
 bd8:	48 8d 85 e0 eb ff ff 	lea    -0x1420(%rbp),%rax
 bdf:	48 89 c7             	mov    %rax,%rdi
 be2:	e8 00 00 00 00       	callq  be7 <_Z10runCpuMCPimm+0x3d5>
 be7:	89 d8                	mov    %ebx,%eax
 be9:	eb 53                	jmp    c3e <_Z10runCpuMCPimm+0x42c>
 beb:	48 89 c3             	mov    %rax,%rbx
 bee:	48 8d 45 90          	lea    -0x70(%rbp),%rax
 bf2:	48 89 c7             	mov    %rax,%rdi
 bf5:	e8 00 00 00 00       	callq  bfa <_Z10runCpuMCPimm+0x3e8>
 bfa:	eb 03                	jmp    bff <_Z10runCpuMCPimm+0x3ed>
 bfc:	48 89 c3             	mov    %rax,%rbx
 bff:	48 8d 45 b7          	lea    -0x49(%rbp),%rax
 c03:	48 89 c7             	mov    %rax,%rdi
 c06:	e8 00 00 00 00       	callq  c0b <_Z10runCpuMCPimm+0x3f9>
 c0b:	eb 03                	jmp    c10 <_Z10runCpuMCPimm+0x3fe>
 c0d:	48 89 c3             	mov    %rax,%rbx
 c10:	48 8d 85 b0 eb ff ff 	lea    -0x1450(%rbp),%rax
 c17:	48 89 c7             	mov    %rax,%rdi
 c1a:	e8 00 00 00 00       	callq  c1f <_Z10runCpuMCPimm+0x40d>
 c1f:	eb 03                	jmp    c24 <_Z10runCpuMCPimm+0x412>
 c21:	48 89 c3             	mov    %rax,%rbx
 c24:	48 8d 85 e0 eb ff ff 	lea    -0x1420(%rbp),%rax
 c2b:	48 89 c7             	mov    %rax,%rdi
 c2e:	e8 00 00 00 00       	callq  c33 <_Z10runCpuMCPimm+0x421>
 c33:	48 89 d8             	mov    %rbx,%rax
 c36:	48 89 c7             	mov    %rax,%rdi
 c39:	e8 00 00 00 00       	callq  c3e <_Z10runCpuMCPimm+0x42c>
 c3e:	48 8b 5d f8          	mov    -0x8(%rbp),%rbx
 c42:	c9                   	leaveq 
 c43:	c3                   	retq   

0000000000000c44 <_Z41__static_initialization_and_destruction_0ii>:
 c44:	55                   	push   %rbp
 c45:	48 89 e5             	mov    %rsp,%rbp
 c48:	48 83 ec 10          	sub    $0x10,%rsp
 c4c:	89 7d fc             	mov    %edi,-0x4(%rbp)
 c4f:	89 75 f8             	mov    %esi,-0x8(%rbp)
 c52:	83 7d fc 01          	cmpl   $0x1,-0x4(%rbp)
 c56:	75 27                	jne    c7f <_Z41__static_initialization_and_destruction_0ii+0x3b>
 c58:	81 7d f8 ff ff 00 00 	cmpl   $0xffff,-0x8(%rbp)
 c5f:	75 1e                	jne    c7f <_Z41__static_initialization_and_destruction_0ii+0x3b>
 c61:	bf 00 00 00 00       	mov    $0x0,%edi
 c66:	e8 00 00 00 00       	callq  c6b <_Z41__static_initialization_and_destruction_0ii+0x27>
 c6b:	ba 00 00 00 00       	mov    $0x0,%edx
 c70:	be 00 00 00 00       	mov    $0x0,%esi
 c75:	bf 00 00 00 00       	mov    $0x0,%edi
 c7a:	e8 00 00 00 00       	callq  c7f <_Z41__static_initialization_and_destruction_0ii+0x3b>
 c7f:	90                   	nop
 c80:	c9                   	leaveq 
 c81:	c3                   	retq   

0000000000000c82 <_GLOBAL__sub_I__Z8dbprintfPKcz>:
 c82:	55                   	push   %rbp
 c83:	48 89 e5             	mov    %rsp,%rbp
 c86:	be ff ff 00 00       	mov    $0xffff,%esi
 c8b:	bf 01 00 00 00       	mov    $0x1,%edi
 c90:	e8 af ff ff ff       	callq  c44 <_Z41__static_initialization_and_destruction_0ii>
 c95:	5d                   	pop    %rbp
 c96:	c3                   	retq   

Disassembly of section .text._ZNSt7__cxx119to_stringEi:

0000000000000000 <_ZNSt7__cxx119to_stringEi>:
   0:	55                   	push   %rbp
   1:	48 89 e5             	mov    %rsp,%rbp
   4:	53                   	push   %rbx
   5:	48 83 ec 28          	sub    $0x28,%rsp
   9:	48 89 7d d8          	mov    %rdi,-0x28(%rbp)
   d:	89 75 d4             	mov    %esi,-0x2c(%rbp)
  10:	8b 45 d4             	mov    -0x2c(%rbp),%eax
  13:	c1 e8 1f             	shr    $0x1f,%eax
  16:	88 45 ef             	mov    %al,-0x11(%rbp)
  19:	80 7d ef 00          	cmpb   $0x0,-0x11(%rbp)
  1d:	74 07                	je     26 <_ZNSt7__cxx119to_stringEi+0x26>
  1f:	8b 45 d4             	mov    -0x2c(%rbp),%eax
  22:	f7 d8                	neg    %eax
  24:	eb 03                	jmp    29 <_ZNSt7__cxx119to_stringEi+0x29>
  26:	8b 45 d4             	mov    -0x2c(%rbp),%eax
  29:	89 45 e8             	mov    %eax,-0x18(%rbp)
  2c:	8b 45 e8             	mov    -0x18(%rbp),%eax
  2f:	be 0a 00 00 00       	mov    $0xa,%esi
  34:	89 c7                	mov    %eax,%edi
  36:	e8 00 00 00 00       	callq  3b <_ZNSt7__cxx119to_stringEi+0x3b>
  3b:	89 45 e4             	mov    %eax,-0x1c(%rbp)
  3e:	48 8d 45 e3          	lea    -0x1d(%rbp),%rax
  42:	48 89 c7             	mov    %rax,%rdi
  45:	e8 00 00 00 00       	callq  4a <_ZNSt7__cxx119to_stringEi+0x4a>
  4a:	0f b6 55 ef          	movzbl -0x11(%rbp),%edx
  4e:	8b 45 e4             	mov    -0x1c(%rbp),%eax
  51:	01 d0                	add    %edx,%eax
  53:	89 c6                	mov    %eax,%esi
  55:	48 8d 55 e3          	lea    -0x1d(%rbp),%rdx
  59:	48 8b 45 d8          	mov    -0x28(%rbp),%rax
  5d:	48 89 d1             	mov    %rdx,%rcx
  60:	ba 2d 00 00 00       	mov    $0x2d,%edx
  65:	48 89 c7             	mov    %rax,%rdi
  68:	e8 00 00 00 00       	callq  6d <_ZNSt7__cxx119to_stringEi+0x6d>
  6d:	48 8d 45 e3          	lea    -0x1d(%rbp),%rax
  71:	48 89 c7             	mov    %rax,%rdi
  74:	e8 00 00 00 00       	callq  79 <_ZNSt7__cxx119to_stringEi+0x79>
  79:	0f b6 55 ef          	movzbl -0x11(%rbp),%edx
  7d:	48 8b 45 d8          	mov    -0x28(%rbp),%rax
  81:	48 89 d6             	mov    %rdx,%rsi
  84:	48 89 c7             	mov    %rax,%rdi
  87:	e8 00 00 00 00       	callq  8c <_ZNSt7__cxx119to_stringEi+0x8c>
  8c:	48 89 c1             	mov    %rax,%rcx
  8f:	8b 55 e8             	mov    -0x18(%rbp),%edx
  92:	8b 45 e4             	mov    -0x1c(%rbp),%eax
  95:	89 c6                	mov    %eax,%esi
  97:	48 89 cf             	mov    %rcx,%rdi
  9a:	e8 00 00 00 00       	callq  9f <_ZNSt7__cxx119to_stringEi+0x9f>
  9f:	eb 34                	jmp    d5 <_ZNSt7__cxx119to_stringEi+0xd5>
  a1:	48 89 c3             	mov    %rax,%rbx
  a4:	48 8d 45 e3          	lea    -0x1d(%rbp),%rax
  a8:	48 89 c7             	mov    %rax,%rdi
  ab:	e8 00 00 00 00       	callq  b0 <_ZNSt7__cxx119to_stringEi+0xb0>
  b0:	48 89 d8             	mov    %rbx,%rax
  b3:	48 89 c7             	mov    %rax,%rdi
  b6:	e8 00 00 00 00       	callq  bb <_ZNSt7__cxx119to_stringEi+0xbb>
  bb:	48 89 c3             	mov    %rax,%rbx
  be:	48 8b 45 d8          	mov    -0x28(%rbp),%rax
  c2:	48 89 c7             	mov    %rax,%rdi
  c5:	e8 00 00 00 00       	callq  ca <_ZNSt7__cxx119to_stringEi+0xca>
  ca:	48 89 d8             	mov    %rbx,%rax
  cd:	48 89 c7             	mov    %rax,%rdi
  d0:	e8 00 00 00 00       	callq  d5 <_ZNSt7__cxx119to_stringEi+0xd5>
  d5:	48 8b 45 d8          	mov    -0x28(%rbp),%rax
  d9:	48 8b 5d f8          	mov    -0x8(%rbp),%rbx
  dd:	c9                   	leaveq 
  de:	c3                   	retq   

Disassembly of section .text._ZSt9nextafterff:

0000000000000000 <_ZSt9nextafterff>:
   0:	55                   	push   %rbp
   1:	48 89 e5             	mov    %rsp,%rbp
   4:	48 83 ec 10          	sub    $0x10,%rsp
   8:	f3 0f 11 45 fc       	movss  %xmm0,-0x4(%rbp)
   d:	f3 0f 11 4d f8       	movss  %xmm1,-0x8(%rbp)
  12:	f3 0f 10 45 f8       	movss  -0x8(%rbp),%xmm0
  17:	8b 45 fc             	mov    -0x4(%rbp),%eax
  1a:	0f 28 c8             	movaps %xmm0,%xmm1
  1d:	66 0f 6e c0          	movd   %eax,%xmm0
  21:	e8 00 00 00 00       	callq  26 <_ZSt9nextafterff+0x26>
  26:	c9                   	leaveq 
  27:	c3                   	retq   

Disassembly of section .text._ZNSt14numeric_limitsIjE3minEv:

0000000000000000 <_ZNSt14numeric_limitsIjE3minEv>:
   0:	55                   	push   %rbp
   1:	48 89 e5             	mov    %rsp,%rbp
   4:	b8 00 00 00 00       	mov    $0x0,%eax
   9:	5d                   	pop    %rbp
   a:	c3                   	retq   

Disassembly of section .text._ZNSt13random_deviceC2Ev:

0000000000000000 <_ZNSt13random_deviceC1Ev>:
   0:	55                   	push   %rbp
   1:	48 89 e5             	mov    %rsp,%rbp
   4:	53                   	push   %rbx
   5:	48 83 ec 48          	sub    $0x48,%rsp
   9:	48 89 7d b8          	mov    %rdi,-0x48(%rbp)
   d:	48 8d 45 ef          	lea    -0x11(%rbp),%rax
  11:	48 89 c7             	mov    %rax,%rdi
  14:	e8 00 00 00 00       	callq  19 <_ZNSt13random_deviceC1Ev+0x19>
  19:	48 8d 55 ef          	lea    -0x11(%rbp),%rdx
  1d:	48 8d 45 c0          	lea    -0x40(%rbp),%rax
  21:	be 00 00 00 00       	mov    $0x0,%esi
  26:	48 89 c7             	mov    %rax,%rdi
  29:	e8 00 00 00 00       	callq  2e <_ZNSt13random_deviceC1Ev+0x2e>
  2e:	48 8d 55 c0          	lea    -0x40(%rbp),%rdx
  32:	48 8b 45 b8          	mov    -0x48(%rbp),%rax
  36:	48 89 d6             	mov    %rdx,%rsi
  39:	48 89 c7             	mov    %rax,%rdi
  3c:	e8 00 00 00 00       	callq  41 <_ZNSt13random_deviceC1Ev+0x41>
  41:	48 8d 45 c0          	lea    -0x40(%rbp),%rax
  45:	48 89 c7             	mov    %rax,%rdi
  48:	e8 00 00 00 00       	callq  4d <_ZNSt13random_deviceC1Ev+0x4d>
  4d:	48 8d 45 ef          	lea    -0x11(%rbp),%rax
  51:	48 89 c7             	mov    %rax,%rdi
  54:	e8 00 00 00 00       	callq  59 <_ZNSt13random_deviceC1Ev+0x59>
  59:	eb 2b                	jmp    86 <_ZNSt13random_deviceC1Ev+0x86>
  5b:	48 89 c3             	mov    %rax,%rbx
  5e:	48 8d 45 c0          	lea    -0x40(%rbp),%rax
  62:	48 89 c7             	mov    %rax,%rdi
  65:	e8 00 00 00 00       	callq  6a <_ZNSt13random_deviceC1Ev+0x6a>
  6a:	eb 03                	jmp    6f <_ZNSt13random_deviceC1Ev+0x6f>
  6c:	48 89 c3             	mov    %rax,%rbx
  6f:	48 8d 45 ef          	lea    -0x11(%rbp),%rax
  73:	48 89 c7             	mov    %rax,%rdi
  76:	e8 00 00 00 00       	callq  7b <_ZNSt13random_deviceC1Ev+0x7b>
  7b:	48 89 d8             	mov    %rbx,%rax
  7e:	48 89 c7             	mov    %rax,%rdi
  81:	e8 00 00 00 00       	callq  86 <_ZNSt13random_deviceC1Ev+0x86>
  86:	48 8b 5d f8          	mov    -0x8(%rbp),%rbx
  8a:	c9                   	leaveq 
  8b:	c3                   	retq   

Disassembly of section .text._ZNSt13random_deviceD2Ev:

0000000000000000 <_ZNSt13random_deviceD1Ev>:
   0:	55                   	push   %rbp
   1:	48 89 e5             	mov    %rsp,%rbp
   4:	48 83 ec 10          	sub    $0x10,%rsp
   8:	48 89 7d f8          	mov    %rdi,-0x8(%rbp)
   c:	48 8b 45 f8          	mov    -0x8(%rbp),%rax
  10:	48 89 c7             	mov    %rax,%rdi
  13:	e8 00 00 00 00       	callq  18 <_ZNSt13random_deviceD1Ev+0x18>
  18:	90                   	nop
  19:	c9                   	leaveq 
  1a:	c3                   	retq   

Disassembly of section .text._ZNSt13random_device3minEv:

0000000000000000 <_ZNSt13random_device3minEv>:
   0:	55                   	push   %rbp
   1:	48 89 e5             	mov    %rsp,%rbp
   4:	e8 00 00 00 00       	callq  9 <_ZNSt13random_device3minEv+0x9>
   9:	5d                   	pop    %rbp
   a:	c3                   	retq   

Disassembly of section .text._ZNSt13random_deviceclEv:

0000000000000000 <_ZNSt13random_deviceclEv>:
   0:	55                   	push   %rbp
   1:	48 89 e5             	mov    %rsp,%rbp
   4:	48 83 ec 10          	sub    $0x10,%rsp
   8:	48 89 7d f8          	mov    %rdi,-0x8(%rbp)
   c:	48 8b 45 f8          	mov    -0x8(%rbp),%rax
  10:	48 89 c7             	mov    %rax,%rdi
  13:	e8 00 00 00 00       	callq  18 <_ZNSt13random_deviceclEv+0x18>
  18:	c9                   	leaveq 
  19:	c3                   	retq   

Disassembly of section .text._ZSt12setprecisioni:

0000000000000000 <_ZSt12setprecisioni>:
   0:	55                   	push   %rbp
   1:	48 89 e5             	mov    %rsp,%rbp
   4:	89 7d fc             	mov    %edi,-0x4(%rbp)
   7:	8b 45 fc             	mov    -0x4(%rbp),%eax
   a:	5d                   	pop    %rbp
   b:	c3                   	retq   

Disassembly of section .text._ZNKSt6chrono8durationIlSt5ratioILl1ELl1000000000EEE5countEv:

0000000000000000 <_ZNKSt6chrono8durationIlSt5ratioILl1ELl1000000000EEE5countEv>:
   0:	55                   	push   %rbp
   1:	48 89 e5             	mov    %rsp,%rbp
   4:	48 89 7d f8          	mov    %rdi,-0x8(%rbp)
   8:	48 8b 45 f8          	mov    -0x8(%rbp),%rax
   c:	48 8b 00             	mov    (%rax),%rax
   f:	5d                   	pop    %rbp
  10:	c3                   	retq   

Disassembly of section .text._ZNSt6chrono8durationIlSt5ratioILl1ELl1000000000EEEC1IlvEERKT_:

0000000000000000 <_ZNSt6chrono8durationIlSt5ratioILl1ELl1000000000EEEC1IlvEERKT_>:
   0:	55                   	push   %rbp
   1:	48 89 e5             	mov    %rsp,%rbp
   4:	48 89 7d f8          	mov    %rdi,-0x8(%rbp)
   8:	48 89 75 f0          	mov    %rsi,-0x10(%rbp)
   c:	48 8b 45 f0          	mov    -0x10(%rbp),%rax
  10:	48 8b 10             	mov    (%rax),%rdx
  13:	48 8b 45 f8          	mov    -0x8(%rbp),%rax
  17:	48 89 10             	mov    %rdx,(%rax)
  1a:	90                   	nop
  1b:	5d                   	pop    %rbp
  1c:	c3                   	retq   

Disassembly of section .text._ZNSt6chrono8durationIdSt5ratioILl1ELl1EEEC1IlS1_ILl1ELl1000000000EEvEERKNS0_IT_T0_EE:

0000000000000000 <_ZNSt6chrono8durationIdSt5ratioILl1ELl1EEEC1IlS1_ILl1ELl1000000000EEvEERKNS0_IT_T0_EE>:
   0:	55                   	push   %rbp
   1:	48 89 e5             	mov    %rsp,%rbp
   4:	48 83 ec 20          	sub    $0x20,%rsp
   8:	48 89 7d e8          	mov    %rdi,-0x18(%rbp)
   c:	48 89 75 e0          	mov    %rsi,-0x20(%rbp)
  10:	48 8b 45 e0          	mov    -0x20(%rbp),%rax
  14:	48 89 c7             	mov    %rax,%rdi
  17:	e8 00 00 00 00       	callq  1c <_ZNSt6chrono8durationIdSt5ratioILl1ELl1EEEC1IlS1_ILl1ELl1000000000EEvEERKNS0_IT_T0_EE+0x1c>
  1c:	f2 0f 11 45 f8       	movsd  %xmm0,-0x8(%rbp)
  21:	48 8d 45 f8          	lea    -0x8(%rbp),%rax
  25:	48 89 c7             	mov    %rax,%rdi
  28:	e8 00 00 00 00       	callq  2d <_ZNSt6chrono8durationIdSt5ratioILl1ELl1EEEC1IlS1_ILl1ELl1000000000EEvEERKNS0_IT_T0_EE+0x2d>
  2d:	66 48 0f 7e c0       	movq   %xmm0,%rax
  32:	48 8b 55 e8          	mov    -0x18(%rbp),%rdx
  36:	48 89 02             	mov    %rax,(%rdx)
  39:	90                   	nop
  3a:	c9                   	leaveq 
  3b:	c3                   	retq   

Disassembly of section .text._ZNSt6chronomiINS_3_V212system_clockENS_8durationIlSt5ratioILl1ELl1000000000EEEES6_EENSt11common_typeIJT0_T1_EE4typeERKNS_10time_pointIT_S8_EERKNSC_ISD_S9_EE:

0000000000000000 <_ZNSt6chronomiINS_3_V212system_clockENS_8durationIlSt5ratioILl1ELl1000000000EEEES6_EENSt11common_typeIJT0_T1_EE4typeERKNS_10time_pointIT_S8_EERKNSC_ISD_S9_EE>:
   0:	55                   	push   %rbp
   1:	48 89 e5             	mov    %rsp,%rbp
   4:	48 83 ec 20          	sub    $0x20,%rsp
   8:	48 89 7d e8          	mov    %rdi,-0x18(%rbp)
   c:	48 89 75 e0          	mov    %rsi,-0x20(%rbp)
  10:	48 8b 45 e0          	mov    -0x20(%rbp),%rax
  14:	48 89 c7             	mov    %rax,%rdi
  17:	e8 00 00 00 00       	callq  1c <_ZNSt6chronomiINS_3_V212system_clockENS_8durationIlSt5ratioILl1ELl1000000000EEEES6_EENSt11common_typeIJT0_T1_EE4typeERKNS_10time_pointIT_S8_EERKNSC_ISD_S9_EE+0x1c>
  1c:	48 89 45 f0          	mov    %rax,-0x10(%rbp)
  20:	48 8b 45 e8          	mov    -0x18(%rbp),%rax
  24:	48 89 c7             	mov    %rax,%rdi
  27:	e8 00 00 00 00       	callq  2c <_ZNSt6chronomiINS_3_V212system_clockENS_8durationIlSt5ratioILl1ELl1000000000EEEES6_EENSt11common_typeIJT0_T1_EE4typeERKNS_10time_pointIT_S8_EERKNSC_ISD_S9_EE+0x2c>
  2c:	48 89 45 f8          	mov    %rax,-0x8(%rbp)
  30:	48 8d 55 f0          	lea    -0x10(%rbp),%rdx
  34:	48 8d 45 f8          	lea    -0x8(%rbp),%rax
  38:	48 89 d6             	mov    %rdx,%rsi
  3b:	48 89 c7             	mov    %rax,%rdi
  3e:	e8 00 00 00 00       	callq  43 <_ZNSt6chronomiINS_3_V212system_clockENS_8durationIlSt5ratioILl1ELl1000000000EEEES6_EENSt11common_typeIJT0_T1_EE4typeERKNS_10time_pointIT_S8_EERKNSC_ISD_S9_EE+0x43>
  43:	c9                   	leaveq 
  44:	c3                   	retq   

Disassembly of section .text._ZNSt6chronomiIlSt5ratioILl1ELl1000000000EElS2_EENSt11common_typeIJNS_8durationIT_T0_EENS4_IT1_T2_EEEE4typeERKS7_RKSA_:

0000000000000000 <_ZNSt6chronomiIlSt5ratioILl1ELl1000000000EElS2_EENSt11common_typeIJNS_8durationIT_T0_EENS4_IT1_T2_EEEE4typeERKS7_RKSA_>:
   0:	55                   	push   %rbp
   1:	48 89 e5             	mov    %rsp,%rbp
   4:	53                   	push   %rbx
   5:	48 83 ec 38          	sub    $0x38,%rsp
   9:	48 89 7d c8          	mov    %rdi,-0x38(%rbp)
   d:	48 89 75 c0          	mov    %rsi,-0x40(%rbp)
  11:	48 8b 45 c8          	mov    -0x38(%rbp),%rax
  15:	48 8b 00             	mov    (%rax),%rax
  18:	48 89 45 e0          	mov    %rax,-0x20(%rbp)
  1c:	48 8d 45 e0          	lea    -0x20(%rbp),%rax
  20:	48 89 c7             	mov    %rax,%rdi
  23:	e8 00 00 00 00       	callq  28 <_ZNSt6chronomiIlSt5ratioILl1ELl1000000000EElS2_EENSt11common_typeIJNS_8durationIT_T0_EENS4_IT1_T2_EEEE4typeERKS7_RKSA_+0x28>
  28:	48 89 c3             	mov    %rax,%rbx
  2b:	48 8b 45 c0          	mov    -0x40(%rbp),%rax
  2f:	48 8b 00             	mov    (%rax),%rax
  32:	48 89 45 e8          	mov    %rax,-0x18(%rbp)
  36:	48 8d 45 e8          	lea    -0x18(%rbp),%rax
  3a:	48 89 c7             	mov    %rax,%rdi
  3d:	e8 00 00 00 00       	callq  42 <_ZNSt6chronomiIlSt5ratioILl1ELl1000000000EElS2_EENSt11common_typeIJNS_8durationIT_T0_EENS4_IT1_T2_EEEE4typeERKS7_RKSA_+0x42>
  42:	48 89 c2             	mov    %rax,%rdx
  45:	48 89 d8             	mov    %rbx,%rax
  48:	48 29 d0             	sub    %rdx,%rax
  4b:	48 89 45 d8          	mov    %rax,-0x28(%rbp)
  4f:	48 8d 55 d8          	lea    -0x28(%rbp),%rdx
  53:	48 8d 45 d0          	lea    -0x30(%rbp),%rax
  57:	48 89 d6             	mov    %rdx,%rsi
  5a:	48 89 c7             	mov    %rax,%rdi
  5d:	e8 00 00 00 00       	callq  62 <_ZNSt6chronomiIlSt5ratioILl1ELl1000000000EElS2_EENSt11common_typeIJNS_8durationIT_T0_EENS4_IT1_T2_EEEE4typeERKS7_RKSA_+0x62>
  62:	48 8b 45 d0          	mov    -0x30(%rbp),%rax
  66:	48 8b 5d f8          	mov    -0x8(%rbp),%rbx
  6a:	c9                   	leaveq 
  6b:	c3                   	retq   

Disassembly of section .text._ZNKSt6chrono10time_pointINS_3_V212system_clockENS_8durationIlSt5ratioILl1ELl1000000000EEEEE16time_since_epochEv:

0000000000000000 <_ZNKSt6chrono10time_pointINS_3_V212system_clockENS_8durationIlSt5ratioILl1ELl1000000000EEEEE16time_since_epochEv>:
   0:	55                   	push   %rbp
   1:	48 89 e5             	mov    %rsp,%rbp
   4:	48 89 7d f8          	mov    %rdi,-0x8(%rbp)
   8:	48 8b 45 f8          	mov    -0x8(%rbp),%rax
   c:	48 8b 00             	mov    (%rax),%rax
   f:	5d                   	pop    %rbp
  10:	c3                   	retq   

Disassembly of section .text._ZNSt8__detail14__to_chars_lenIjEEjT_i:

0000000000000000 <_ZNSt8__detail14__to_chars_lenIjEEjT_i>:
   0:	55                   	push   %rbp
   1:	48 89 e5             	mov    %rsp,%rbp
   4:	89 7d dc             	mov    %edi,-0x24(%rbp)
   7:	89 75 d8             	mov    %esi,-0x28(%rbp)
   a:	c7 45 fc 01 00 00 00 	movl   $0x1,-0x4(%rbp)
  11:	8b 45 d8             	mov    -0x28(%rbp),%eax
  14:	0f af c0             	imul   %eax,%eax
  17:	89 45 f8             	mov    %eax,-0x8(%rbp)
  1a:	8b 45 d8             	mov    -0x28(%rbp),%eax
  1d:	8b 55 f8             	mov    -0x8(%rbp),%edx
  20:	0f af c2             	imul   %edx,%eax
  23:	89 45 f4             	mov    %eax,-0xc(%rbp)
  26:	8b 45 d8             	mov    -0x28(%rbp),%eax
  29:	0f af 45 f4          	imul   -0xc(%rbp),%eax
  2d:	89 c0                	mov    %eax,%eax
  2f:	48 89 45 e8          	mov    %rax,-0x18(%rbp)
  33:	8b 45 d8             	mov    -0x28(%rbp),%eax
  36:	39 45 dc             	cmp    %eax,-0x24(%rbp)
  39:	73 05                	jae    40 <_ZNSt8__detail14__to_chars_lenIjEEjT_i+0x40>
  3b:	8b 45 fc             	mov    -0x4(%rbp),%eax
  3e:	eb 46                	jmp    86 <_ZNSt8__detail14__to_chars_lenIjEEjT_i+0x86>
  40:	8b 45 dc             	mov    -0x24(%rbp),%eax
  43:	3b 45 f8             	cmp    -0x8(%rbp),%eax
  46:	73 08                	jae    50 <_ZNSt8__detail14__to_chars_lenIjEEjT_i+0x50>
  48:	8b 45 fc             	mov    -0x4(%rbp),%eax
  4b:	83 c0 01             	add    $0x1,%eax
  4e:	eb 36                	jmp    86 <_ZNSt8__detail14__to_chars_lenIjEEjT_i+0x86>
  50:	8b 45 dc             	mov    -0x24(%rbp),%eax
  53:	3b 45 f4             	cmp    -0xc(%rbp),%eax
  56:	73 08                	jae    60 <_ZNSt8__detail14__to_chars_lenIjEEjT_i+0x60>
  58:	8b 45 fc             	mov    -0x4(%rbp),%eax
  5b:	83 c0 02             	add    $0x2,%eax
  5e:	eb 26                	jmp    86 <_ZNSt8__detail14__to_chars_lenIjEEjT_i+0x86>
  60:	8b 45 dc             	mov    -0x24(%rbp),%eax
  63:	48 39 45 e8          	cmp    %rax,-0x18(%rbp)
  67:	76 08                	jbe    71 <_ZNSt8__detail14__to_chars_lenIjEEjT_i+0x71>
  69:	8b 45 fc             	mov    -0x4(%rbp),%eax
  6c:	83 c0 03             	add    $0x3,%eax
  6f:	eb 15                	jmp    86 <_ZNSt8__detail14__to_chars_lenIjEEjT_i+0x86>
  71:	8b 45 dc             	mov    -0x24(%rbp),%eax
  74:	ba 00 00 00 00       	mov    $0x0,%edx
  79:	48 f7 75 e8          	divq   -0x18(%rbp)
  7d:	89 45 dc             	mov    %eax,-0x24(%rbp)
  80:	83 45 fc 04          	addl   $0x4,-0x4(%rbp)
  84:	eb ad                	jmp    33 <_ZNSt8__detail14__to_chars_lenIjEEjT_i+0x33>
  86:	5d                   	pop    %rbp
  87:	c3                   	retq   

Disassembly of section .text._ZNSt8__detail18__to_chars_10_implIjEEvPcjT_:

0000000000000000 <_ZNSt8__detail18__to_chars_10_implIjEEvPcjT_>:
   0:	55                   	push   %rbp
   1:	48 89 e5             	mov    %rsp,%rbp
   4:	48 89 7d e8          	mov    %rdi,-0x18(%rbp)
   8:	89 75 e4             	mov    %esi,-0x1c(%rbp)
   b:	89 55 e0             	mov    %edx,-0x20(%rbp)
   e:	8b 45 e4             	mov    -0x1c(%rbp),%eax
  11:	83 e8 01             	sub    $0x1,%eax
  14:	89 45 fc             	mov    %eax,-0x4(%rbp)
  17:	eb 6f                	jmp    88 <_ZNSt8__detail18__to_chars_10_implIjEEvPcjT_+0x88>
  19:	8b 55 e0             	mov    -0x20(%rbp),%edx
  1c:	89 d0                	mov    %edx,%eax
  1e:	48 69 c0 1f 85 eb 51 	imul   $0x51eb851f,%rax,%rax
  25:	48 c1 e8 20          	shr    $0x20,%rax
  29:	c1 e8 05             	shr    $0x5,%eax
  2c:	6b c8 64             	imul   $0x64,%eax,%ecx
  2f:	89 d0                	mov    %edx,%eax
  31:	29 c8                	sub    %ecx,%eax
  33:	01 c0                	add    %eax,%eax
  35:	89 45 f4             	mov    %eax,-0xc(%rbp)
  38:	8b 45 e0             	mov    -0x20(%rbp),%eax
  3b:	89 c0                	mov    %eax,%eax
  3d:	48 69 c0 1f 85 eb 51 	imul   $0x51eb851f,%rax,%rax
  44:	48 c1 e8 20          	shr    $0x20,%rax
  48:	c1 e8 05             	shr    $0x5,%eax
  4b:	89 45 e0             	mov    %eax,-0x20(%rbp)
  4e:	8b 45 f4             	mov    -0xc(%rbp),%eax
  51:	8d 48 01             	lea    0x1(%rax),%ecx
  54:	8b 55 fc             	mov    -0x4(%rbp),%edx
  57:	48 8b 45 e8          	mov    -0x18(%rbp),%rax
  5b:	48 01 c2             	add    %rax,%rdx
  5e:	89 c8                	mov    %ecx,%eax
  60:	0f b6 80 00 00 00 00 	movzbl 0x0(%rax),%eax
  67:	88 02                	mov    %al,(%rdx)
  69:	8b 45 fc             	mov    -0x4(%rbp),%eax
  6c:	83 e8 01             	sub    $0x1,%eax
  6f:	89 c2                	mov    %eax,%edx
  71:	48 8b 45 e8          	mov    -0x18(%rbp),%rax
  75:	48 01 c2             	add    %rax,%rdx
  78:	8b 45 f4             	mov    -0xc(%rbp),%eax
  7b:	0f b6 80 00 00 00 00 	movzbl 0x0(%rax),%eax
  82:	88 02                	mov    %al,(%rdx)
  84:	83 6d fc 02          	subl   $0x2,-0x4(%rbp)
  88:	83 7d e0 63          	cmpl   $0x63,-0x20(%rbp)
  8c:	77 8b                	ja     19 <_ZNSt8__detail18__to_chars_10_implIjEEvPcjT_+0x19>
  8e:	83 7d e0 09          	cmpl   $0x9,-0x20(%rbp)
  92:	76 33                	jbe    c7 <_ZNSt8__detail18__to_chars_10_implIjEEvPcjT_+0xc7>
  94:	8b 45 e0             	mov    -0x20(%rbp),%eax
  97:	01 c0                	add    %eax,%eax
  99:	89 45 f8             	mov    %eax,-0x8(%rbp)
  9c:	8b 45 f8             	mov    -0x8(%rbp),%eax
  9f:	8d 48 01             	lea    0x1(%rax),%ecx
  a2:	48 8b 45 e8          	mov    -0x18(%rbp),%rax
  a6:	48 8d 50 01          	lea    0x1(%rax),%rdx
  aa:	89 c8                	mov    %ecx,%eax
  ac:	0f b6 80 00 00 00 00 	movzbl 0x0(%rax),%eax
  b3:	88 02                	mov    %al,(%rdx)
  b5:	8b 45 f8             	mov    -0x8(%rbp),%eax
  b8:	0f b6 90 00 00 00 00 	movzbl 0x0(%rax),%edx
  bf:	48 8b 45 e8          	mov    -0x18(%rbp),%rax
  c3:	88 10                	mov    %dl,(%rax)
  c5:	eb 0e                	jmp    d5 <_ZNSt8__detail18__to_chars_10_implIjEEvPcjT_+0xd5>
  c7:	8b 45 e0             	mov    -0x20(%rbp),%eax
  ca:	83 c0 30             	add    $0x30,%eax
  cd:	89 c2                	mov    %eax,%edx
  cf:	48 8b 45 e8          	mov    -0x18(%rbp),%rax
  d3:	88 10                	mov    %dl,(%rax)
  d5:	90                   	nop
  d6:	5d                   	pop    %rbp
  d7:	c3                   	retq   

Disassembly of section .text._ZSt3minIiERKT_S2_S2_:

0000000000000000 <_ZSt3minIiERKT_S2_S2_>:
   0:	55                   	push   %rbp
   1:	48 89 e5             	mov    %rsp,%rbp
   4:	48 89 7d f8          	mov    %rdi,-0x8(%rbp)
   8:	48 89 75 f0          	mov    %rsi,-0x10(%rbp)
   c:	48 8b 45 f0          	mov    -0x10(%rbp),%rax
  10:	8b 10                	mov    (%rax),%edx
  12:	48 8b 45 f8          	mov    -0x8(%rbp),%rax
  16:	8b 00                	mov    (%rax),%eax
  18:	39 c2                	cmp    %eax,%edx
  1a:	7d 06                	jge    22 <_ZSt3minIiERKT_S2_S2_+0x22>
  1c:	48 8b 45 f0          	mov    -0x10(%rbp),%rax
  20:	eb 04                	jmp    26 <_ZSt3minIiERKT_S2_S2_+0x26>
  22:	48 8b 45 f8          	mov    -0x8(%rbp),%rax
  26:	5d                   	pop    %rbp
  27:	c3                   	retq   

Disassembly of section .text._ZNSt25uniform_real_distributionIfEC2Eff:

0000000000000000 <_ZNSt25uniform_real_distributionIfEC1Eff>:
   0:	55                   	push   %rbp
   1:	48 89 e5             	mov    %rsp,%rbp
   4:	48 83 ec 10          	sub    $0x10,%rsp
   8:	48 89 7d f8          	mov    %rdi,-0x8(%rbp)
   c:	f3 0f 11 45 f4       	movss  %xmm0,-0xc(%rbp)
  11:	f3 0f 11 4d f0       	movss  %xmm1,-0x10(%rbp)
  16:	48 8b 45 f8          	mov    -0x8(%rbp),%rax
  1a:	f3 0f 10 45 f0       	movss  -0x10(%rbp),%xmm0
  1f:	8b 55 f4             	mov    -0xc(%rbp),%edx
  22:	0f 28 c8             	movaps %xmm0,%xmm1
  25:	66 0f 6e c2          	movd   %edx,%xmm0
  29:	48 89 c7             	mov    %rax,%rdi
  2c:	e8 00 00 00 00       	callq  31 <_ZNSt25uniform_real_distributionIfEC1Eff+0x31>
  31:	90                   	nop
  32:	c9                   	leaveq 
  33:	c3                   	retq   

Disassembly of section .text._ZNSt25uniform_real_distributionIfEclISt13random_deviceEEfRT_:

0000000000000000 <_ZNSt25uniform_real_distributionIfEclISt13random_deviceEEfRT_>:
   0:	55                   	push   %rbp
   1:	48 89 e5             	mov    %rsp,%rbp
   4:	48 83 ec 10          	sub    $0x10,%rsp
   8:	48 89 7d f8          	mov    %rdi,-0x8(%rbp)
   c:	48 89 75 f0          	mov    %rsi,-0x10(%rbp)
  10:	48 8b 55 f8          	mov    -0x8(%rbp),%rdx
  14:	48 8b 4d f0          	mov    -0x10(%rbp),%rcx
  18:	48 8b 45 f8          	mov    -0x8(%rbp),%rax
  1c:	48 89 ce             	mov    %rcx,%rsi
  1f:	48 89 c7             	mov    %rax,%rdi
  22:	e8 00 00 00 00       	callq  27 <_ZNSt25uniform_real_distributionIfEclISt13random_deviceEEfRT_+0x27>
  27:	c9                   	leaveq 
  28:	c3                   	retq   

Disassembly of section .text._ZNSt6chrono13duration_castINS_8durationIdSt5ratioILl1ELl1EEEElS2_ILl1ELl1000000000EEEENSt9enable_ifIXsrNS_13__is_durationIT_EE5valueES8_E4typeERKNS1_IT0_T1_EE:

0000000000000000 <_ZNSt6chrono13duration_castINS_8durationIdSt5ratioILl1ELl1EEEElS2_ILl1ELl1000000000EEEENSt9enable_ifIXsrNS_13__is_durationIT_EE5valueES8_E4typeERKNS1_IT0_T1_EE>:
   0:	55                   	push   %rbp
   1:	48 89 e5             	mov    %rsp,%rbp
   4:	48 83 ec 10          	sub    $0x10,%rsp
   8:	48 89 7d f8          	mov    %rdi,-0x8(%rbp)
   c:	48 8b 45 f8          	mov    -0x8(%rbp),%rax
  10:	48 89 c7             	mov    %rax,%rdi
  13:	e8 00 00 00 00       	callq  18 <_ZNSt6chrono13duration_castINS_8durationIdSt5ratioILl1ELl1EEEElS2_ILl1ELl1000000000EEEENSt9enable_ifIXsrNS_13__is_durationIT_EE5valueES8_E4typeERKNS1_IT0_T1_EE+0x18>
  18:	c9                   	leaveq 
  19:	c3                   	retq   

Disassembly of section .text._ZNKSt6chrono8durationIdSt5ratioILl1ELl1EEE5countEv:

0000000000000000 <_ZNKSt6chrono8durationIdSt5ratioILl1ELl1EEE5countEv>:
   0:	55                   	push   %rbp
   1:	48 89 e5             	mov    %rsp,%rbp
   4:	48 89 7d f8          	mov    %rdi,-0x8(%rbp)
   8:	48 8b 45 f8          	mov    -0x8(%rbp),%rax
   c:	f2 0f 10 00          	movsd  (%rax),%xmm0
  10:	5d                   	pop    %rbp
  11:	c3                   	retq   

Disassembly of section .text._ZNSt25uniform_real_distributionIfE10param_typeC2Eff:

0000000000000000 <_ZNSt25uniform_real_distributionIfE10param_typeC1Eff>:
   0:	55                   	push   %rbp
   1:	48 89 e5             	mov    %rsp,%rbp
   4:	48 89 7d f8          	mov    %rdi,-0x8(%rbp)
   8:	f3 0f 11 45 f4       	movss  %xmm0,-0xc(%rbp)
   d:	f3 0f 11 4d f0       	movss  %xmm1,-0x10(%rbp)
  12:	48 8b 45 f8          	mov    -0x8(%rbp),%rax
  16:	f3 0f 10 45 f4       	movss  -0xc(%rbp),%xmm0
  1b:	f3 0f 11 00          	movss  %xmm0,(%rax)
  1f:	48 8b 45 f8          	mov    -0x8(%rbp),%rax
  23:	f3 0f 10 45 f0       	movss  -0x10(%rbp),%xmm0
  28:	f3 0f 11 40 04       	movss  %xmm0,0x4(%rax)
  2d:	90                   	nop
  2e:	5d                   	pop    %rbp
  2f:	c3                   	retq   

Disassembly of section .text._ZNSt25uniform_real_distributionIfEclISt13random_deviceEEfRT_RKNS0_10param_typeE:

0000000000000000 <_ZNSt25uniform_real_distributionIfEclISt13random_deviceEEfRT_RKNS0_10param_typeE>:
   0:	55                   	push   %rbp
   1:	48 89 e5             	mov    %rsp,%rbp
   4:	53                   	push   %rbx
   5:	48 83 ec 38          	sub    $0x38,%rsp
   9:	48 89 7d d8          	mov    %rdi,-0x28(%rbp)
   d:	48 89 75 d0          	mov    %rsi,-0x30(%rbp)
  11:	48 89 55 c8          	mov    %rdx,-0x38(%rbp)
  15:	48 8b 55 d0          	mov    -0x30(%rbp),%rdx
  19:	48 8d 45 e8          	lea    -0x18(%rbp),%rax
  1d:	48 89 d6             	mov    %rdx,%rsi
  20:	48 89 c7             	mov    %rax,%rdi
  23:	e8 00 00 00 00       	callq  28 <_ZNSt25uniform_real_distributionIfEclISt13random_deviceEEfRT_RKNS0_10param_typeE+0x28>
  28:	48 8d 45 e8          	lea    -0x18(%rbp),%rax
  2c:	48 89 c7             	mov    %rax,%rdi
  2f:	e8 00 00 00 00       	callq  34 <_ZNSt25uniform_real_distributionIfEclISt13random_deviceEEfRT_RKNS0_10param_typeE+0x34>
  34:	f3 0f 11 45 c4       	movss  %xmm0,-0x3c(%rbp)
  39:	48 8b 45 c8          	mov    -0x38(%rbp),%rax
  3d:	48 89 c7             	mov    %rax,%rdi
  40:	e8 00 00 00 00       	callq  45 <_ZNSt25uniform_real_distributionIfEclISt13random_deviceEEfRT_RKNS0_10param_typeE+0x45>
  45:	66 0f 7e c3          	movd   %xmm0,%ebx
  49:	48 8b 45 c8          	mov    -0x38(%rbp),%rax
  4d:	48 89 c7             	mov    %rax,%rdi
  50:	e8 00 00 00 00       	callq  55 <_ZNSt25uniform_real_distributionIfEclISt13random_deviceEEfRT_RKNS0_10param_typeE+0x55>
  55:	66 0f 6e cb          	movd   %ebx,%xmm1
  59:	f3 0f 5c c8          	subss  %xmm0,%xmm1
  5d:	f3 0f 59 4d c4       	mulss  -0x3c(%rbp),%xmm1
  62:	f3 0f 11 4d c4       	movss  %xmm1,-0x3c(%rbp)
  67:	48 8b 45 c8          	mov    -0x38(%rbp),%rax
  6b:	48 89 c7             	mov    %rax,%rdi
  6e:	e8 00 00 00 00       	callq  73 <_ZNSt25uniform_real_distributionIfEclISt13random_deviceEEfRT_RKNS0_10param_typeE+0x73>
  73:	f3 0f 58 45 c4       	addss  -0x3c(%rbp),%xmm0
  78:	48 8b 5d f8          	mov    -0x8(%rbp),%rbx
  7c:	c9                   	leaveq 
  7d:	c3                   	retq   

Disassembly of section .text._ZNSt6chrono20__duration_cast_implINS_8durationIdSt5ratioILl1ELl1EEEES2_ILl1ELl1000000000EEdLb1ELb0EE6__castIlS5_EES4_RKNS1_IT_T0_EE:

0000000000000000 <_ZNSt6chrono20__duration_cast_implINS_8durationIdSt5ratioILl1ELl1EEEES2_ILl1ELl1000000000EEdLb1ELb0EE6__castIlS5_EES4_RKNS1_IT_T0_EE>:
   0:	55                   	push   %rbp
   1:	48 89 e5             	mov    %rsp,%rbp
   4:	48 83 ec 20          	sub    $0x20,%rsp
   8:	48 89 7d e8          	mov    %rdi,-0x18(%rbp)
   c:	48 8b 45 e8          	mov    -0x18(%rbp),%rax
  10:	48 89 c7             	mov    %rax,%rdi
  13:	e8 00 00 00 00       	callq  18 <_ZNSt6chrono20__duration_cast_implINS_8durationIdSt5ratioILl1ELl1EEEES2_ILl1ELl1000000000EEdLb1ELb0EE6__castIlS5_EES4_RKNS1_IT_T0_EE+0x18>
  18:	66 0f ef c0          	pxor   %xmm0,%xmm0
  1c:	f2 48 0f 2a c0       	cvtsi2sd %rax,%xmm0
  21:	f2 0f 10 0d 00 00 00 	movsd  0x0(%rip),%xmm1        # 29 <_ZNSt6chrono20__duration_cast_implINS_8durationIdSt5ratioILl1ELl1EEEES2_ILl1ELl1000000000EEdLb1ELb0EE6__castIlS5_EES4_RKNS1_IT_T0_EE+0x29>
  28:	00 
  29:	f2 0f 5e c1          	divsd  %xmm1,%xmm0
  2d:	f2 0f 11 45 f8       	movsd  %xmm0,-0x8(%rbp)
  32:	48 8d 55 f8          	lea    -0x8(%rbp),%rdx
  36:	48 8d 45 f0          	lea    -0x10(%rbp),%rax
  3a:	48 89 d6             	mov    %rdx,%rsi
  3d:	48 89 c7             	mov    %rax,%rdi
  40:	e8 00 00 00 00       	callq  45 <_ZNSt6chrono20__duration_cast_implINS_8durationIdSt5ratioILl1ELl1EEEES2_ILl1ELl1000000000EEdLb1ELb0EE6__castIlS5_EES4_RKNS1_IT_T0_EE+0x45>
  45:	f2 0f 10 45 f0       	movsd  -0x10(%rbp),%xmm0
  4a:	c9                   	leaveq 
  4b:	c3                   	retq   

Disassembly of section .text._ZNSt8__detail8_AdaptorISt13random_devicefEC2ERS1_:

0000000000000000 <_ZNSt8__detail8_AdaptorISt13random_devicefEC1ERS1_>:
   0:	55                   	push   %rbp
   1:	48 89 e5             	mov    %rsp,%rbp
   4:	48 89 7d f8          	mov    %rdi,-0x8(%rbp)
   8:	48 89 75 f0          	mov    %rsi,-0x10(%rbp)
   c:	48 8b 45 f8          	mov    -0x8(%rbp),%rax
  10:	48 8b 55 f0          	mov    -0x10(%rbp),%rdx
  14:	48 89 10             	mov    %rdx,(%rax)
  17:	90                   	nop
  18:	5d                   	pop    %rbp
  19:	c3                   	retq   

Disassembly of section .text._ZNSt8__detail8_AdaptorISt13random_devicefEclEv:

0000000000000000 <_ZNSt8__detail8_AdaptorISt13random_devicefEclEv>:
   0:	55                   	push   %rbp
   1:	48 89 e5             	mov    %rsp,%rbp
   4:	48 83 ec 10          	sub    $0x10,%rsp
   8:	48 89 7d f8          	mov    %rdi,-0x8(%rbp)
   c:	48 8b 45 f8          	mov    -0x8(%rbp),%rax
  10:	48 8b 00             	mov    (%rax),%rax
  13:	48 89 c7             	mov    %rax,%rdi
  16:	e8 00 00 00 00       	callq  1b <_ZNSt8__detail8_AdaptorISt13random_devicefEclEv+0x1b>
  1b:	c9                   	leaveq 
  1c:	c3                   	retq   

Disassembly of section .text._ZNKSt25uniform_real_distributionIfE10param_type1bEv:

0000000000000000 <_ZNKSt25uniform_real_distributionIfE10param_type1bEv>:
   0:	55                   	push   %rbp
   1:	48 89 e5             	mov    %rsp,%rbp
   4:	48 89 7d f8          	mov    %rdi,-0x8(%rbp)
   8:	48 8b 45 f8          	mov    -0x8(%rbp),%rax
   c:	f3 0f 10 40 04       	movss  0x4(%rax),%xmm0
  11:	5d                   	pop    %rbp
  12:	c3                   	retq   

Disassembly of section .text._ZNKSt25uniform_real_distributionIfE10param_type1aEv:

0000000000000000 <_ZNKSt25uniform_real_distributionIfE10param_type1aEv>:
   0:	55                   	push   %rbp
   1:	48 89 e5             	mov    %rsp,%rbp
   4:	48 89 7d f8          	mov    %rdi,-0x8(%rbp)
   8:	48 8b 45 f8          	mov    -0x8(%rbp),%rax
   c:	f3 0f 10 00          	movss  (%rax),%xmm0
  10:	5d                   	pop    %rbp
  11:	c3                   	retq   

Disassembly of section .text._ZNSt6chrono8durationIdSt5ratioILl1ELl1EEEC2IdvEERKT_:

0000000000000000 <_ZNSt6chrono8durationIdSt5ratioILl1ELl1EEEC1IdvEERKT_>:
   0:	55                   	push   %rbp
   1:	48 89 e5             	mov    %rsp,%rbp
   4:	48 89 7d f8          	mov    %rdi,-0x8(%rbp)
   8:	48 89 75 f0          	mov    %rsi,-0x10(%rbp)
   c:	48 8b 45 f0          	mov    -0x10(%rbp),%rax
  10:	f2 0f 10 00          	movsd  (%rax),%xmm0
  14:	48 8b 45 f8          	mov    -0x8(%rbp),%rax
  18:	f2 0f 11 00          	movsd  %xmm0,(%rax)
  1c:	90                   	nop
  1d:	5d                   	pop    %rbp
  1e:	c3                   	retq   

Disassembly of section .text._ZSt18generate_canonicalIfLm24ESt13random_deviceET_RT1_:

0000000000000000 <_ZSt18generate_canonicalIfLm24ESt13random_deviceET_RT1_>:
   0:	55                   	push   %rbp
   1:	48 89 e5             	mov    %rsp,%rbp
   4:	53                   	push   %rbx
   5:	48 83 ec 78          	sub    $0x78,%rsp
   9:	48 89 7d 88          	mov    %rdi,-0x78(%rbp)
   d:	48 c7 45 90 18 00 00 	movq   $0x18,-0x70(%rbp)
  14:	00 
  15:	48 c7 45 98 18 00 00 	movq   $0x18,-0x68(%rbp)
  1c:	00 
  1d:	48 8d 55 90          	lea    -0x70(%rbp),%rdx
  21:	48 8d 45 98          	lea    -0x68(%rbp),%rax
  25:	48 89 d6             	mov    %rdx,%rsi
  28:	48 89 c7             	mov    %rax,%rdi
  2b:	e8 00 00 00 00       	callq  30 <_ZSt18generate_canonicalIfLm24ESt13random_deviceET_RT1_+0x30>
  30:	48 8b 00             	mov    (%rax),%rax
  33:	48 89 45 d0          	mov    %rax,-0x30(%rbp)
  37:	db 2d 00 00 00 00    	fldt   0x0(%rip)        # 3d <_ZSt18generate_canonicalIfLm24ESt13random_deviceET_RT1_+0x3d>
  3d:	db 7d c0             	fstpt  -0x40(%rbp)
  40:	48 c7 45 b8 20 00 00 	movq   $0x20,-0x48(%rbp)
  47:	00 
  48:	48 8b 45 d0          	mov    -0x30(%rbp),%rax
  4c:	48 83 c0 1f          	add    $0x1f,%rax
  50:	48 c1 e8 05          	shr    $0x5,%rax
  54:	48 89 45 a0          	mov    %rax,-0x60(%rbp)
  58:	48 c7 45 a8 01 00 00 	movq   $0x1,-0x58(%rbp)
  5f:	00 
  60:	48 8d 55 a0          	lea    -0x60(%rbp),%rdx
  64:	48 8d 45 a8          	lea    -0x58(%rbp),%rax
  68:	48 89 d6             	mov    %rdx,%rsi
  6b:	48 89 c7             	mov    %rax,%rdi
  6e:	e8 00 00 00 00       	callq  73 <_ZSt18generate_canonicalIfLm24ESt13random_deviceET_RT1_+0x73>
  73:	48 8b 00             	mov    (%rax),%rax
  76:	48 89 45 b0          	mov    %rax,-0x50(%rbp)
  7a:	66 0f ef c0          	pxor   %xmm0,%xmm0
  7e:	f3 0f 11 45 e8       	movss  %xmm0,-0x18(%rbp)
  83:	f3 0f 10 05 00 00 00 	movss  0x0(%rip),%xmm0        # 8b <_ZSt18generate_canonicalIfLm24ESt13random_deviceET_RT1_+0x8b>
  8a:	00 
  8b:	f3 0f 11 45 e4       	movss  %xmm0,-0x1c(%rbp)
  90:	48 8b 45 b0          	mov    -0x50(%rbp),%rax
  94:	48 89 45 d8          	mov    %rax,-0x28(%rbp)
  98:	eb 70                	jmp    10a <_ZSt18generate_canonicalIfLm24ESt13random_deviceET_RT1_+0x10a>
  9a:	48 8b 45 88          	mov    -0x78(%rbp),%rax
  9e:	48 89 c7             	mov    %rax,%rdi
  a1:	e8 00 00 00 00       	callq  a6 <_ZSt18generate_canonicalIfLm24ESt13random_deviceET_RT1_+0xa6>
  a6:	89 c3                	mov    %eax,%ebx
  a8:	e8 00 00 00 00       	callq  ad <_ZSt18generate_canonicalIfLm24ESt13random_deviceET_RT1_+0xad>
  ad:	29 c3                	sub    %eax,%ebx
  af:	89 da                	mov    %ebx,%edx
  b1:	89 d0                	mov    %edx,%eax
  b3:	48 85 c0             	test   %rax,%rax
  b6:	78 0b                	js     c3 <_ZSt18generate_canonicalIfLm24ESt13random_deviceET_RT1_+0xc3>
  b8:	66 0f ef c0          	pxor   %xmm0,%xmm0
  bc:	f3 48 0f 2a c0       	cvtsi2ss %rax,%xmm0
  c1:	eb 19                	jmp    dc <_ZSt18generate_canonicalIfLm24ESt13random_deviceET_RT1_+0xdc>
  c3:	48 89 c2             	mov    %rax,%rdx
  c6:	48 d1 ea             	shr    %rdx
  c9:	83 e0 01             	and    $0x1,%eax
  cc:	48 09 c2             	or     %rax,%rdx
  cf:	66 0f ef c0          	pxor   %xmm0,%xmm0
  d3:	f3 48 0f 2a c2       	cvtsi2ss %rdx,%xmm0
  d8:	f3 0f 58 c0          	addss  %xmm0,%xmm0
  dc:	f3 0f 59 45 e4       	mulss  -0x1c(%rbp),%xmm0
  e1:	f3 0f 10 4d e8       	movss  -0x18(%rbp),%xmm1
  e6:	f3 0f 58 c1          	addss  %xmm1,%xmm0
  ea:	f3 0f 11 45 e8       	movss  %xmm0,-0x18(%rbp)
  ef:	f3 0f 10 4d e4       	movss  -0x1c(%rbp),%xmm1
  f4:	f3 0f 10 05 00 00 00 	movss  0x0(%rip),%xmm0        # fc <_ZSt18generate_canonicalIfLm24ESt13random_deviceET_RT1_+0xfc>
  fb:	00 
  fc:	f3 0f 59 c1          	mulss  %xmm1,%xmm0
 100:	f3 0f 11 45 e4       	movss  %xmm0,-0x1c(%rbp)
 105:	48 83 6d d8 01       	subq   $0x1,-0x28(%rbp)
 10a:	48 83 7d d8 00       	cmpq   $0x0,-0x28(%rbp)
 10f:	75 89                	jne    9a <_ZSt18generate_canonicalIfLm24ESt13random_deviceET_RT1_+0x9a>
 111:	f3 0f 10 45 e8       	movss  -0x18(%rbp),%xmm0
 116:	f3 0f 5e 45 e4       	divss  -0x1c(%rbp),%xmm0
 11b:	f3 0f 11 45 ec       	movss  %xmm0,-0x14(%rbp)
 120:	f3 0f 10 45 ec       	movss  -0x14(%rbp),%xmm0
 125:	f3 0f 10 0d 00 00 00 	movss  0x0(%rip),%xmm1        # 12d <_ZSt18generate_canonicalIfLm24ESt13random_deviceET_RT1_+0x12d>
 12c:	00 
 12d:	0f 2f c1             	comiss %xmm1,%xmm0
 130:	0f 93 c0             	setae  %al
 133:	0f b6 c0             	movzbl %al,%eax
 136:	48 85 c0             	test   %rax,%rax
 139:	74 1a                	je     155 <_ZSt18generate_canonicalIfLm24ESt13random_deviceET_RT1_+0x155>
 13b:	66 0f ef c9          	pxor   %xmm1,%xmm1
 13f:	8b 05 00 00 00 00    	mov    0x0(%rip),%eax        # 145 <_ZSt18generate_canonicalIfLm24ESt13random_deviceET_RT1_+0x145>
 145:	66 0f 6e c0          	movd   %eax,%xmm0
 149:	e8 00 00 00 00       	callq  14e <_ZSt18generate_canonicalIfLm24ESt13random_deviceET_RT1_+0x14e>
 14e:	66 0f 7e c0          	movd   %xmm0,%eax
 152:	89 45 ec             	mov    %eax,-0x14(%rbp)
 155:	f3 0f 10 45 ec       	movss  -0x14(%rbp),%xmm0
 15a:	48 8b 5d f8          	mov    -0x8(%rbp),%rbx
 15e:	c9                   	leaveq 
 15f:	c3                   	retq   

Disassembly of section .text._ZSt3minImERKT_S2_S2_:

0000000000000000 <_ZSt3minImERKT_S2_S2_>:
   0:	55                   	push   %rbp
   1:	48 89 e5             	mov    %rsp,%rbp
   4:	48 89 7d f8          	mov    %rdi,-0x8(%rbp)
   8:	48 89 75 f0          	mov    %rsi,-0x10(%rbp)
   c:	48 8b 45 f0          	mov    -0x10(%rbp),%rax
  10:	48 8b 10             	mov    (%rax),%rdx
  13:	48 8b 45 f8          	mov    -0x8(%rbp),%rax
  17:	48 8b 00             	mov    (%rax),%rax
  1a:	48 39 c2             	cmp    %rax,%rdx
  1d:	73 06                	jae    25 <_ZSt3minImERKT_S2_S2_+0x25>
  1f:	48 8b 45 f0          	mov    -0x10(%rbp),%rax
  23:	eb 04                	jmp    29 <_ZSt3minImERKT_S2_S2_+0x29>
  25:	48 8b 45 f8          	mov    -0x8(%rbp),%rax
  29:	5d                   	pop    %rbp
  2a:	c3                   	retq   

Disassembly of section .text._ZSt3maxImERKT_S2_S2_:

0000000000000000 <_ZSt3maxImERKT_S2_S2_>:
   0:	55                   	push   %rbp
   1:	48 89 e5             	mov    %rsp,%rbp
   4:	48 89 7d f8          	mov    %rdi,-0x8(%rbp)
   8:	48 89 75 f0          	mov    %rsi,-0x10(%rbp)
   c:	48 8b 45 f8          	mov    -0x8(%rbp),%rax
  10:	48 8b 10             	mov    (%rax),%rdx
  13:	48 8b 45 f0          	mov    -0x10(%rbp),%rax
  17:	48 8b 00             	mov    (%rax),%rax
  1a:	48 39 c2             	cmp    %rax,%rdx
  1d:	73 06                	jae    25 <_ZSt3maxImERKT_S2_S2_+0x25>
  1f:	48 8b 45 f0          	mov    -0x10(%rbp),%rax
  23:	eb 04                	jmp    29 <_ZSt3maxImERKT_S2_S2_+0x29>
  25:	48 8b 45 f8          	mov    -0x8(%rbp),%rax
  29:	5d                   	pop    %rbp
  2a:	c3                   	retq   
